
target/riscv64gc-unknown-none-elf/debug/os:     file format elf64-littleriscv


Disassembly of section .text:

0000000080200000 <_start>:
    80200000:	00052117          	auipc	sp,0x52
    80200004:	00010113          	mv	sp,sp
    80200008:	00001097          	auipc	ra,0x1
    8020000c:	91e080e7          	jalr	-1762(ra) # 80200926 <rust_main>

0000000080200010 <_ZN4core5slice5index77_$LT$impl$u20$core..ops..index..IndexMut$LT$I$GT$$u20$for$u20$$u5b$T$u5d$$GT$9index_mut17h820b4f9ce2dab85eE>:
    80200010:	7139                	addi	sp,sp,-64
    80200012:	fc06                	sd	ra,56(sp)
    80200014:	f822                	sd	s0,48(sp)
    80200016:	0080                	addi	s0,sp,64
    80200018:	fcc43023          	sd	a2,-64(s0)
    8020001c:	862e                	mv	a2,a1
    8020001e:	85aa                	mv	a1,a0
    80200020:	fc043503          	ld	a0,-64(s0)
    80200024:	fcb43c23          	sd	a1,-40(s0)
    80200028:	fec43023          	sd	a2,-32(s0)
    8020002c:	fea43423          	sd	a0,-24(s0)
    80200030:	00004097          	auipc	ra,0x4
    80200034:	0ce080e7          	jalr	206(ra) # 802040fe <_ZN108_$LT$core..ops..range..RangeTo$LT$usize$GT$$u20$as$u20$core..slice..index..SliceIndex$LT$$u5b$T$u5d$$GT$$GT$9index_mut17h09364ce77f71ad05E>
    80200038:	fca43423          	sd	a0,-56(s0)
    8020003c:	fcb43823          	sd	a1,-48(s0)
    80200040:	a009                	j	80200042 <_ZN4core5slice5index77_$LT$impl$u20$core..ops..index..IndexMut$LT$I$GT$$u20$for$u20$$u5b$T$u5d$$GT$9index_mut17h820b4f9ce2dab85eE+0x32>
    80200042:	fd043583          	ld	a1,-48(s0)
    80200046:	fc843503          	ld	a0,-56(s0)
    8020004a:	70e2                	ld	ra,56(sp)
    8020004c:	7442                	ld	s0,48(sp)
    8020004e:	6121                	addi	sp,sp,64
    80200050:	8082                	ret

0000000080200052 <_ZN4core5slice5index77_$LT$impl$u20$core..ops..index..IndexMut$LT$I$GT$$u20$for$u20$$u5b$T$u5d$$GT$9index_mut17h8abb490f3709a9dbE>:
    80200052:	7139                	addi	sp,sp,-64
    80200054:	fc06                	sd	ra,56(sp)
    80200056:	f822                	sd	s0,48(sp)
    80200058:	0080                	addi	s0,sp,64
    8020005a:	fca43c23          	sd	a0,-40(s0)
    8020005e:	feb43023          	sd	a1,-32(s0)
    80200062:	00004097          	auipc	ra,0x4
    80200066:	0e4080e7          	jalr	228(ra) # 80204146 <_ZN97_$LT$core..ops..range..RangeFull$u20$as$u20$core..slice..index..SliceIndex$LT$$u5b$T$u5d$$GT$$GT$9index_mut17h65334a3f2056890dE>
    8020006a:	fca43423          	sd	a0,-56(s0)
    8020006e:	fcb43823          	sd	a1,-48(s0)
    80200072:	a009                	j	80200074 <_ZN4core5slice5index77_$LT$impl$u20$core..ops..index..IndexMut$LT$I$GT$$u20$for$u20$$u5b$T$u5d$$GT$9index_mut17h8abb490f3709a9dbE+0x22>
    80200074:	fd043583          	ld	a1,-48(s0)
    80200078:	fc843503          	ld	a0,-56(s0)
    8020007c:	70e2                	ld	ra,56(sp)
    8020007e:	7442                	ld	s0,48(sp)
    80200080:	6121                	addi	sp,sp,64
    80200082:	8082                	ret

0000000080200084 <_ZN63_$LT$I$u20$as$u20$core..iter..traits..collect..IntoIterator$GT$9into_iter17hc5ac2c60db62f4c2E>:
    80200084:	1101                	addi	sp,sp,-32
    80200086:	ec06                	sd	ra,24(sp)
    80200088:	e822                	sd	s0,16(sp)
    8020008a:	1000                	addi	s0,sp,32
    8020008c:	fea43023          	sd	a0,-32(s0)
    80200090:	feb43423          	sd	a1,-24(s0)
    80200094:	60e2                	ld	ra,24(sp)
    80200096:	6442                	ld	s0,16(sp)
    80200098:	6105                	addi	sp,sp,32
    8020009a:	8082                	ret

000000008020009c <_ZN81_$LT$core..str..iter..Chars$u20$as$u20$core..iter..traits..iterator..Iterator$GT$4next28_$u7b$$u7b$closure$u7d$$u7d$17hbf4da6e69bc5dd7fE>:
    8020009c:	1101                	addi	sp,sp,-32
    8020009e:	ec06                	sd	ra,24(sp)
    802000a0:	e822                	sd	s0,16(sp)
    802000a2:	1000                	addi	s0,sp,32
    802000a4:	fea42623          	sw	a0,-20(s0)
    802000a8:	00003097          	auipc	ra,0x3
    802000ac:	9b2080e7          	jalr	-1614(ra) # 80202a5a <_ZN4core4char7convert18from_u32_unchecked17hd16b3dba7bc5bd4dE>
    802000b0:	1502                	slli	a0,a0,0x20
    802000b2:	9101                	srli	a0,a0,0x20
    802000b4:	fea43023          	sd	a0,-32(s0)
    802000b8:	a009                	j	802000ba <_ZN81_$LT$core..str..iter..Chars$u20$as$u20$core..iter..traits..iterator..Iterator$GT$4next28_$u7b$$u7b$closure$u7d$$u7d$17hbf4da6e69bc5dd7fE+0x1e>
    802000ba:	fe043503          	ld	a0,-32(s0)
    802000be:	60e2                	ld	ra,24(sp)
    802000c0:	6442                	ld	s0,16(sp)
    802000c2:	6105                	addi	sp,sp,32
    802000c4:	8082                	ret

00000000802000c6 <_ZN4core4iter8adapters9enumerate18Enumerate$LT$I$GT$3new17he7fe09237c69ff45E>:
    802000c6:	7179                	addi	sp,sp,-48
    802000c8:	f406                	sd	ra,40(sp)
    802000ca:	f022                	sd	s0,32(sp)
    802000cc:	1800                	addi	s0,sp,48
    802000ce:	fcb43c23          	sd	a1,-40(s0)
    802000d2:	85aa                	mv	a1,a0
    802000d4:	fd843503          	ld	a0,-40(s0)
    802000d8:	fea43023          	sd	a0,-32(s0)
    802000dc:	fec43423          	sd	a2,-24(s0)
    802000e0:	e188                	sd	a0,0(a1)
    802000e2:	e590                	sd	a2,8(a1)
    802000e4:	4501                	li	a0,0
    802000e6:	e988                	sd	a0,16(a1)
    802000e8:	70a2                	ld	ra,40(sp)
    802000ea:	7402                	ld	s0,32(sp)
    802000ec:	6145                	addi	sp,sp,48
    802000ee:	8082                	ret

00000000802000f0 <_ZN110_$LT$core..iter..adapters..enumerate..Enumerate$LT$I$GT$$u20$as$u20$core..iter..traits..iterator..Iterator$GT$4next17hb8127de3c7d21c3dE>:
    802000f0:	7175                	addi	sp,sp,-144
    802000f2:	e506                	sd	ra,136(sp)
    802000f4:	e122                	sd	s0,128(sp)
    802000f6:	0900                	addi	s0,sp,144
    802000f8:	f8a43823          	sd	a0,-112(s0)
    802000fc:	fca43423          	sd	a0,-56(s0)
    80200100:	00005097          	auipc	ra,0x5
    80200104:	47c080e7          	jalr	1148(ra) # 8020557c <_ZN94_$LT$core..slice..iter..IterMut$LT$T$GT$$u20$as$u20$core..iter..traits..iterator..Iterator$GT$4next17hae77365470cb2dddE>
    80200108:	f8a43c23          	sd	a0,-104(s0)
    8020010c:	a009                	j	8020010e <_ZN110_$LT$core..iter..adapters..enumerate..Enumerate$LT$I$GT$$u20$as$u20$core..iter..traits..iterator..Iterator$GT$4next17hb8127de3c7d21c3dE+0x1e>
    8020010e:	f9843503          	ld	a0,-104(s0)
    80200112:	00004097          	auipc	ra,0x4
    80200116:	bc2080e7          	jalr	-1086(ra) # 80203cd4 <_ZN75_$LT$core..option..Option$LT$T$GT$$u20$as$u20$core..ops..try_trait..Try$GT$6branch17h011e20aab4f40cedE>
    8020011a:	faa43823          	sd	a0,-80(s0)
    8020011e:	a009                	j	80200120 <_ZN110_$LT$core..iter..adapters..enumerate..Enumerate$LT$I$GT$$u20$as$u20$core..iter..traits..iterator..Iterator$GT$4next17hb8127de3c7d21c3dE+0x30>
    80200120:	fb043503          	ld	a0,-80(s0)
    80200124:	00153593          	seqz	a1,a0
    80200128:	4581                	li	a1,0
    8020012a:	00b51563          	bne	a0,a1,80200134 <_ZN110_$LT$core..iter..adapters..enumerate..Enumerate$LT$I$GT$$u20$as$u20$core..iter..traits..iterator..Iterator$GT$4next17hb8127de3c7d21c3dE+0x44>
    8020012e:	a009                	j	80200130 <_ZN110_$LT$core..iter..adapters..enumerate..Enumerate$LT$I$GT$$u20$as$u20$core..iter..traits..iterator..Iterator$GT$4next17hb8127de3c7d21c3dE+0x40>
    80200130:	a80d                	j	80200162 <_ZN110_$LT$core..iter..adapters..enumerate..Enumerate$LT$I$GT$$u20$as$u20$core..iter..traits..iterator..Iterator$GT$4next17hb8127de3c7d21c3dE+0x72>
    80200132:	0000                	unimp
    80200134:	f9043503          	ld	a0,-112(s0)
    80200138:	fb043583          	ld	a1,-80(s0)
    8020013c:	f6b43c23          	sd	a1,-136(s0)
    80200140:	fcb43c23          	sd	a1,-40(s0)
    80200144:	feb43023          	sd	a1,-32(s0)
    80200148:	690c                	ld	a1,16(a0)
    8020014a:	f8b43023          	sd	a1,-128(s0)
    8020014e:	feb43423          	sd	a1,-24(s0)
    80200152:	690c                	ld	a1,16(a0)
    80200154:	00158513          	addi	a0,a1,1
    80200158:	f8a43423          	sd	a0,-120(s0)
    8020015c:	04b56763          	bltu	a0,a1,802001aa <.LBB1_11>
    80200160:	a01d                	j	80200186 <_ZN110_$LT$core..iter..adapters..enumerate..Enumerate$LT$I$GT$$u20$as$u20$core..iter..traits..iterator..Iterator$GT$4next17hb8127de3c7d21c3dE+0x96>
    80200162:	00004097          	auipc	ra,0x4
    80200166:	c08080e7          	jalr	-1016(ra) # 80203d6a <_ZN84_$LT$core..option..Option$LT$T$GT$$u20$as$u20$core..ops..try_trait..FromResidual$GT$13from_residual17h6723f080f09eafd9E>
    8020016a:	faa43023          	sd	a0,-96(s0)
    8020016e:	fab43423          	sd	a1,-88(s0)
    80200172:	a009                	j	80200174 <_ZN110_$LT$core..iter..adapters..enumerate..Enumerate$LT$I$GT$$u20$as$u20$core..iter..traits..iterator..Iterator$GT$4next17hb8127de3c7d21c3dE+0x84>
    80200174:	a009                	j	80200176 <_ZN110_$LT$core..iter..adapters..enumerate..Enumerate$LT$I$GT$$u20$as$u20$core..iter..traits..iterator..Iterator$GT$4next17hb8127de3c7d21c3dE+0x86>
    80200176:	fa043503          	ld	a0,-96(s0)
    8020017a:	fa843583          	ld	a1,-88(s0)
    8020017e:	60aa                	ld	ra,136(sp)
    80200180:	640a                	ld	s0,128(sp)
    80200182:	6149                	addi	sp,sp,144
    80200184:	8082                	ret
    80200186:	f7843503          	ld	a0,-136(s0)
    8020018a:	f8043583          	ld	a1,-128(s0)
    8020018e:	f8843603          	ld	a2,-120(s0)
    80200192:	f9043683          	ld	a3,-112(s0)
    80200196:	ea90                	sd	a2,16(a3)
    80200198:	fab43c23          	sd	a1,-72(s0)
    8020019c:	fca43023          	sd	a0,-64(s0)
    802001a0:	fab43023          	sd	a1,-96(s0)
    802001a4:	faa43423          	sd	a0,-88(s0)
    802001a8:	b7f9                	j	80200176 <_ZN110_$LT$core..iter..adapters..enumerate..Enumerate$LT$I$GT$$u20$as$u20$core..iter..traits..iterator..Iterator$GT$4next17hb8127de3c7d21c3dE+0x86>

00000000802001aa <.LBB1_11>:
    802001aa:	0000c517          	auipc	a0,0xc
    802001ae:	ed650513          	addi	a0,a0,-298 # 8020c080 <str.0>

00000000802001b2 <.LBB1_12>:
    802001b2:	0000c617          	auipc	a2,0xc
    802001b6:	eae60613          	addi	a2,a2,-338 # 8020c060 <.L__unnamed_1>
    802001ba:	45f1                	li	a1,28
    802001bc:	00009097          	auipc	ra,0x9
    802001c0:	ddc080e7          	jalr	-548(ra) # 80208f98 <_ZN4core9panicking5panic17h632812a876026437E>
	...

00000000802001c6 <_ZN4core4iter6traits8iterator8Iterator4take17h10d1f940cc52527cE>:
    802001c6:	7179                	addi	sp,sp,-48
    802001c8:	f406                	sd	ra,40(sp)
    802001ca:	f022                	sd	s0,32(sp)
    802001cc:	1800                	addi	s0,sp,48
    802001ce:	fec43423          	sd	a2,-24(s0)
    802001d2:	6194                	ld	a3,0(a1)
    802001d4:	fcd43823          	sd	a3,-48(s0)
    802001d8:	6594                	ld	a3,8(a1)
    802001da:	fcd43c23          	sd	a3,-40(s0)
    802001de:	698c                	ld	a1,16(a1)
    802001e0:	feb43023          	sd	a1,-32(s0)
    802001e4:	fd040593          	addi	a1,s0,-48
    802001e8:	00002097          	auipc	ra,0x2
    802001ec:	02e080e7          	jalr	46(ra) # 80202216 <_ZN4core4iter8adapters4take13Take$LT$I$GT$3new17h43748fd58f52079cE>
    802001f0:	a009                	j	802001f2 <_ZN4core4iter6traits8iterator8Iterator4take17h10d1f940cc52527cE+0x2c>
    802001f2:	70a2                	ld	ra,40(sp)
    802001f4:	7402                	ld	s0,32(sp)
    802001f6:	6145                	addi	sp,sp,48
    802001f8:	8082                	ret

00000000802001fa <_ZN4core4iter6traits8iterator8Iterator8for_each4call17h0b15a4cf369ea496E>:
    802001fa:	1101                	addi	sp,sp,-32
    802001fc:	ec06                	sd	ra,24(sp)
    802001fe:	e822                	sd	s0,16(sp)
    80200200:	1000                	addi	s0,sp,32
    80200202:	60e2                	ld	ra,24(sp)
    80200204:	6442                	ld	s0,16(sp)
    80200206:	6105                	addi	sp,sp,32
    80200208:	8082                	ret

000000008020020a <_ZN4core4iter6traits8iterator8Iterator8for_each4call28_$u7b$$u7b$closure$u7d$$u7d$17hb01f62f6ec5999dbE>:
    8020020a:	7179                	addi	sp,sp,-48
    8020020c:	f406                	sd	ra,40(sp)
    8020020e:	f022                	sd	s0,32(sp)
    80200210:	1800                	addi	s0,sp,48
    80200212:	fca43c23          	sd	a0,-40(s0)
    80200216:	feb43423          	sd	a1,-24(s0)
    8020021a:	fcb43823          	sd	a1,-48(s0)
    8020021e:	00004097          	auipc	ra,0x4
    80200222:	b66080e7          	jalr	-1178(ra) # 80203d84 <_ZN2os6loader9load_apps28_$u7b$$u7b$closure$u7d$$u7d$17h76c30432de55475cE>
    80200226:	a009                	j	80200228 <_ZN4core4iter6traits8iterator8Iterator8for_each4call28_$u7b$$u7b$closure$u7d$$u7d$17hb01f62f6ec5999dbE+0x1e>
    80200228:	70a2                	ld	ra,40(sp)
    8020022a:	7402                	ld	s0,32(sp)
    8020022c:	6145                	addi	sp,sp,48
    8020022e:	8082                	ret

0000000080200230 <_ZN4core4iter6traits8iterator8Iterator4find5check17h7ce5ca3f54227448E>:
    80200230:	1101                	addi	sp,sp,-32
    80200232:	ec06                	sd	ra,24(sp)
    80200234:	e822                	sd	s0,16(sp)
    80200236:	1000                	addi	s0,sp,32
    80200238:	fea43423          	sd	a0,-24(s0)
    8020023c:	fea43023          	sd	a0,-32(s0)
    80200240:	60e2                	ld	ra,24(sp)
    80200242:	6442                	ld	s0,16(sp)
    80200244:	6105                	addi	sp,sp,32
    80200246:	8082                	ret

0000000080200248 <_ZN4core4iter6traits8iterator8Iterator4find5check28_$u7b$$u7b$closure$u7d$$u7d$17h2c523c505bed8185E>:
    80200248:	715d                	addi	sp,sp,-80
    8020024a:	e486                	sd	ra,72(sp)
    8020024c:	e0a2                	sd	s0,64(sp)
    8020024e:	0880                	addi	s0,sp,80
    80200250:	fab43c23          	sd	a1,-72(s0)
    80200254:	fea43023          	sd	a0,-32(s0)
    80200258:	4585                	li	a1,1
    8020025a:	fcb40fa3          	sb	a1,-33(s0)
    8020025e:	fb840593          	addi	a1,s0,-72
    80200262:	fcb43823          	sd	a1,-48(s0)
    80200266:	00005097          	auipc	ra,0x5
    8020026a:	560080e7          	jalr	1376(ra) # 802057c6 <_ZN2os4task11TaskManager14find_next_task28_$u7b$$u7b$closure$u7d$$u7d$17hac194e990705c215E>
    8020026e:	faa43823          	sd	a0,-80(s0)
    80200272:	a009                	j	80200274 <_ZN4core4iter6traits8iterator8Iterator4find5check28_$u7b$$u7b$closure$u7d$$u7d$17h2c523c505bed8185E+0x2c>
    80200274:	fb043503          	ld	a0,-80(s0)
    80200278:	4581                	li	a1,0
    8020027a:	00b51e63          	bne	a0,a1,80200296 <.LBB3_7+0x16>
    8020027e:	a009                	j	80200280 <.LBB3_7>

0000000080200280 <.LBB3_7>:
    80200280:	0000c517          	auipc	a0,0xc
    80200284:	e2050513          	addi	a0,a0,-480 # 8020c0a0 <str.0+0x20>
    80200288:	610c                	ld	a1,0(a0)
    8020028a:	6508                	ld	a0,8(a0)
    8020028c:	fcb43023          	sd	a1,-64(s0)
    80200290:	fca43423          	sd	a0,-56(s0)
    80200294:	a821                	j	802002ac <.LBB3_7+0x2c>
    80200296:	4501                	li	a0,0
    80200298:	fca40fa3          	sb	a0,-33(s0)
    8020029c:	fb843503          	ld	a0,-72(s0)
    802002a0:	fca43423          	sd	a0,-56(s0)
    802002a4:	4505                	li	a0,1
    802002a6:	fca43023          	sd	a0,-64(s0)
    802002aa:	a009                	j	802002ac <.LBB3_7+0x2c>
    802002ac:	fdf44503          	lbu	a0,-33(s0)
    802002b0:	8905                	andi	a0,a0,1
    802002b2:	4581                	li	a1,0
    802002b4:	00b51b63          	bne	a0,a1,802002ca <.LBB3_7+0x4a>
    802002b8:	a009                	j	802002ba <.LBB3_7+0x3a>
    802002ba:	fc043503          	ld	a0,-64(s0)
    802002be:	fc843583          	ld	a1,-56(s0)
    802002c2:	60a6                	ld	ra,72(sp)
    802002c4:	6406                	ld	s0,64(sp)
    802002c6:	6161                	addi	sp,sp,80
    802002c8:	8082                	ret
    802002ca:	bfc5                	j	802002ba <.LBB3_7+0x3a>

00000000802002cc <_ZN4core3fmt3num52_$LT$impl$u20$core..fmt..Debug$u20$for$u20$usize$GT$3fmt17h75106db9f41446f2E>:
    802002cc:	715d                	addi	sp,sp,-80
    802002ce:	e486                	sd	ra,72(sp)
    802002d0:	e0a2                	sd	s0,64(sp)
    802002d2:	0880                	addi	s0,sp,80
    802002d4:	fcb43023          	sd	a1,-64(s0)
    802002d8:	85aa                	mv	a1,a0
    802002da:	fc043503          	ld	a0,-64(s0)
    802002de:	fcb43423          	sd	a1,-56(s0)
    802002e2:	feb43023          	sd	a1,-32(s0)
    802002e6:	fea43423          	sd	a0,-24(s0)
    802002ea:	0000a097          	auipc	ra,0xa
    802002ee:	baa080e7          	jalr	-1110(ra) # 80209e94 <_ZN4core3fmt9Formatter15debug_lower_hex17h81c96ba5a5b0aebcE>
    802002f2:	fca43823          	sd	a0,-48(s0)
    802002f6:	a009                	j	802002f8 <_ZN4core3fmt3num52_$LT$impl$u20$core..fmt..Debug$u20$for$u20$usize$GT$3fmt17h75106db9f41446f2E+0x2c>
    802002f8:	fd043503          	ld	a0,-48(s0)
    802002fc:	4581                	li	a1,0
    802002fe:	00b51c63          	bne	a0,a1,80200316 <_ZN4core3fmt3num52_$LT$impl$u20$core..fmt..Debug$u20$for$u20$usize$GT$3fmt17h75106db9f41446f2E+0x4a>
    80200302:	a009                	j	80200304 <_ZN4core3fmt3num52_$LT$impl$u20$core..fmt..Debug$u20$for$u20$usize$GT$3fmt17h75106db9f41446f2E+0x38>
    80200304:	fc043503          	ld	a0,-64(s0)
    80200308:	0000a097          	auipc	ra,0xa
    8020030c:	b96080e7          	jalr	-1130(ra) # 80209e9e <_ZN4core3fmt9Formatter15debug_upper_hex17h1ca36c5e39b07a1eE>
    80200310:	faa43c23          	sd	a0,-72(s0)
    80200314:	a01d                	j	8020033a <_ZN4core3fmt3num52_$LT$impl$u20$core..fmt..Debug$u20$for$u20$usize$GT$3fmt17h75106db9f41446f2E+0x6e>
    80200316:	fc043583          	ld	a1,-64(s0)
    8020031a:	fc843503          	ld	a0,-56(s0)
    8020031e:	0000a097          	auipc	ra,0xa
    80200322:	73c080e7          	jalr	1852(ra) # 8020aa5a <_ZN4core3fmt3num53_$LT$impl$u20$core..fmt..LowerHex$u20$for$u20$i64$GT$3fmt17he9e34eee0be6f36aE>
    80200326:	fca40fa3          	sb	a0,-33(s0)
    8020032a:	a009                	j	8020032c <_ZN4core3fmt3num52_$LT$impl$u20$core..fmt..Debug$u20$for$u20$usize$GT$3fmt17h75106db9f41446f2E+0x60>
    8020032c:	a009                	j	8020032e <_ZN4core3fmt3num52_$LT$impl$u20$core..fmt..Debug$u20$for$u20$usize$GT$3fmt17h75106db9f41446f2E+0x62>
    8020032e:	fdf44503          	lbu	a0,-33(s0)
    80200332:	60a6                	ld	ra,72(sp)
    80200334:	6406                	ld	s0,64(sp)
    80200336:	6161                	addi	sp,sp,80
    80200338:	8082                	ret
    8020033a:	fb843503          	ld	a0,-72(s0)
    8020033e:	4581                	li	a1,0
    80200340:	00b51e63          	bne	a0,a1,8020035c <_ZN4core3fmt3num52_$LT$impl$u20$core..fmt..Debug$u20$for$u20$usize$GT$3fmt17h75106db9f41446f2E+0x90>
    80200344:	a009                	j	80200346 <_ZN4core3fmt3num52_$LT$impl$u20$core..fmt..Debug$u20$for$u20$usize$GT$3fmt17h75106db9f41446f2E+0x7a>
    80200346:	fc043583          	ld	a1,-64(s0)
    8020034a:	fc843503          	ld	a0,-56(s0)
    8020034e:	0000b097          	auipc	ra,0xb
    80200352:	b78080e7          	jalr	-1160(ra) # 8020aec6 <_ZN4core3fmt3num3imp52_$LT$impl$u20$core..fmt..Display$u20$for$u20$u64$GT$3fmt17hbf7a5fd6d08076d4E>
    80200356:	fca40fa3          	sb	a0,-33(s0)
    8020035a:	a831                	j	80200376 <_ZN4core3fmt3num52_$LT$impl$u20$core..fmt..Debug$u20$for$u20$usize$GT$3fmt17h75106db9f41446f2E+0xaa>
    8020035c:	fc043583          	ld	a1,-64(s0)
    80200360:	fc843503          	ld	a0,-56(s0)
    80200364:	0000a097          	auipc	ra,0xa
    80200368:	77c080e7          	jalr	1916(ra) # 8020aae0 <_ZN4core3fmt3num53_$LT$impl$u20$core..fmt..UpperHex$u20$for$u20$i64$GT$3fmt17h0ec68c922d12cef0E>
    8020036c:	fca40fa3          	sb	a0,-33(s0)
    80200370:	a009                	j	80200372 <_ZN4core3fmt3num52_$LT$impl$u20$core..fmt..Debug$u20$for$u20$usize$GT$3fmt17h75106db9f41446f2E+0xa6>
    80200372:	a009                	j	80200374 <_ZN4core3fmt3num52_$LT$impl$u20$core..fmt..Debug$u20$for$u20$usize$GT$3fmt17h75106db9f41446f2E+0xa8>
    80200374:	bf6d                	j	8020032e <_ZN4core3fmt3num52_$LT$impl$u20$core..fmt..Debug$u20$for$u20$usize$GT$3fmt17h75106db9f41446f2E+0x62>
    80200376:	bffd                	j	80200374 <_ZN4core3fmt3num52_$LT$impl$u20$core..fmt..Debug$u20$for$u20$usize$GT$3fmt17h75106db9f41446f2E+0xa8>

0000000080200378 <_ZN4core3ptr20slice_from_raw_parts17he05c95ff1cd7248aE>:
    80200378:	7139                	addi	sp,sp,-64
    8020037a:	fc06                	sd	ra,56(sp)
    8020037c:	f822                	sd	s0,48(sp)
    8020037e:	0080                	addi	s0,sp,64
    80200380:	fcb43823          	sd	a1,-48(s0)
    80200384:	fea43023          	sd	a0,-32(s0)
    80200388:	feb43423          	sd	a1,-24(s0)
    8020038c:	00000097          	auipc	ra,0x0
    80200390:	2b0080e7          	jalr	688(ra) # 8020063c <_ZN4core3ptr9const_ptr33_$LT$impl$u20$$BP$const$u20$T$GT$4cast17h3822b29dd1f619e0E>
    80200394:	fca43c23          	sd	a0,-40(s0)
    80200398:	a009                	j	8020039a <_ZN4core3ptr20slice_from_raw_parts17he05c95ff1cd7248aE+0x22>
    8020039a:	fd043583          	ld	a1,-48(s0)
    8020039e:	fd843503          	ld	a0,-40(s0)
    802003a2:	00000097          	auipc	ra,0x0
    802003a6:	0c6080e7          	jalr	198(ra) # 80200468 <_ZN4core3ptr8metadata14from_raw_parts17hb4a0db7829cb0ec8E>
    802003aa:	fca43023          	sd	a0,-64(s0)
    802003ae:	fcb43423          	sd	a1,-56(s0)
    802003b2:	a009                	j	802003b4 <_ZN4core3ptr20slice_from_raw_parts17he05c95ff1cd7248aE+0x3c>
    802003b4:	fc843583          	ld	a1,-56(s0)
    802003b8:	fc043503          	ld	a0,-64(s0)
    802003bc:	70e2                	ld	ra,56(sp)
    802003be:	7442                	ld	s0,48(sp)
    802003c0:	6121                	addi	sp,sp,64
    802003c2:	8082                	ret

00000000802003c4 <_ZN4core3ptr4read17h810dcd8c8528c60fE>:
    802003c4:	715d                	addi	sp,sp,-80
    802003c6:	e486                	sd	ra,72(sp)
    802003c8:	e0a2                	sd	s0,64(sp)
    802003ca:	0880                	addi	s0,sp,80
    802003cc:	faa43c23          	sd	a0,-72(s0)
    802003d0:	fca43423          	sd	a0,-56(s0)
    802003d4:	fd043503          	ld	a0,-48(s0)
    802003d8:	fca43023          	sd	a0,-64(s0)
    802003dc:	a009                	j	802003de <_ZN4core3ptr4read17h810dcd8c8528c60fE+0x1a>
    802003de:	fc040513          	addi	a0,s0,-64
    802003e2:	fca43c23          	sd	a0,-40(s0)
    802003e6:	a009                	j	802003e8 <_ZN4core3ptr4read17h810dcd8c8528c60fE+0x24>
    802003e8:	fb843503          	ld	a0,-72(s0)
    802003ec:	6108                	ld	a0,0(a0)
    802003ee:	faa43823          	sd	a0,-80(s0)
    802003f2:	fca43023          	sd	a0,-64(s0)
    802003f6:	fea43023          	sd	a0,-32(s0)
    802003fa:	fea43423          	sd	a0,-24(s0)
    802003fe:	a009                	j	80200400 <_ZN4core3ptr4read17h810dcd8c8528c60fE+0x3c>
    80200400:	fb043503          	ld	a0,-80(s0)
    80200404:	60a6                	ld	ra,72(sp)
    80200406:	6406                	ld	s0,64(sp)
    80200408:	6161                	addi	sp,sp,80
    8020040a:	8082                	ret

000000008020040c <_ZN4core3ptr5write17h5694487ee064fef4E>:
    8020040c:	1101                	addi	sp,sp,-32
    8020040e:	ec06                	sd	ra,24(sp)
    80200410:	e822                	sd	s0,16(sp)
    80200412:	1000                	addi	s0,sp,32
    80200414:	feb43023          	sd	a1,-32(s0)
    80200418:	fea43423          	sd	a0,-24(s0)
    8020041c:	e10c                	sd	a1,0(a0)
    8020041e:	60e2                	ld	ra,24(sp)
    80200420:	6442                	ld	s0,16(sp)
    80200422:	6105                	addi	sp,sp,32
    80200424:	8082                	ret

0000000080200426 <_ZN4core3ptr13read_volatile17hda164a55d7cbe1b9E>:
    80200426:	7179                	addi	sp,sp,-48
    80200428:	f406                	sd	ra,40(sp)
    8020042a:	f022                	sd	s0,32(sp)
    8020042c:	1800                	addi	s0,sp,48
    8020042e:	fea43023          	sd	a0,-32(s0)
    80200432:	6108                	ld	a0,0(a0)
    80200434:	fca43c23          	sd	a0,-40(s0)
    80200438:	fea43423          	sd	a0,-24(s0)
    8020043c:	a009                	j	8020043e <_ZN4core3ptr13read_volatile17hda164a55d7cbe1b9E+0x18>
    8020043e:	fd843503          	ld	a0,-40(s0)
    80200442:	70a2                	ld	ra,40(sp)
    80200444:	7402                	ld	s0,32(sp)
    80200446:	6145                	addi	sp,sp,48
    80200448:	8082                	ret

000000008020044a <_ZN4core3ptr14write_volatile17h670685babf2435e3E>:
    8020044a:	1101                	addi	sp,sp,-32
    8020044c:	ec06                	sd	ra,24(sp)
    8020044e:	e822                	sd	s0,16(sp)
    80200450:	1000                	addi	s0,sp,32
    80200452:	fea43023          	sd	a0,-32(s0)
    80200456:	feb407a3          	sb	a1,-17(s0)
    8020045a:	00b50023          	sb	a1,0(a0)
    8020045e:	a009                	j	80200460 <_ZN4core3ptr14write_volatile17h670685babf2435e3E+0x16>
    80200460:	60e2                	ld	ra,24(sp)
    80200462:	6442                	ld	s0,16(sp)
    80200464:	6105                	addi	sp,sp,32
    80200466:	8082                	ret

0000000080200468 <_ZN4core3ptr8metadata14from_raw_parts17hb4a0db7829cb0ec8E>:
    80200468:	7139                	addi	sp,sp,-64
    8020046a:	fc06                	sd	ra,56(sp)
    8020046c:	f822                	sd	s0,48(sp)
    8020046e:	0080                	addi	s0,sp,64
    80200470:	fea43023          	sd	a0,-32(s0)
    80200474:	feb43423          	sd	a1,-24(s0)
    80200478:	fca43823          	sd	a0,-48(s0)
    8020047c:	fcb43c23          	sd	a1,-40(s0)
    80200480:	fca43023          	sd	a0,-64(s0)
    80200484:	fcb43423          	sd	a1,-56(s0)
    80200488:	70e2                	ld	ra,56(sp)
    8020048a:	7442                	ld	s0,48(sp)
    8020048c:	6121                	addi	sp,sp,64
    8020048e:	8082                	ret

0000000080200490 <_ZN5riscv8register4time4read17h6282af64c9686724E>:
    ($csr_number:expr, $asm_fn: ident) => {
        read_csr!($csr_number, $asm_fn);

        /// Reads the CSR
        #[inline]
        pub fn read() -> usize {
    80200490:	1101                	addi	sp,sp,-32
            unsafe { _read() }
    80200492:	ec06                	sd	ra,24(sp)
    80200494:	e822                	sd	s0,16(sp)
    80200496:	1000                	addi	s0,sp,32
    80200498:	00000097          	auipc	ra,0x0
    8020049c:	01a080e7          	jalr	26(ra) # 802004b2 <_ZN5riscv8register4time5_read17h69bb971384720cddE>
    802004a0:	fea43423          	sd	a0,-24(s0)
    802004a4:	a009                	j	802004a6 <_ZN5riscv8register4time4read17h6282af64c9686724E+0x16>
        }
    802004a6:	fe843503          	ld	a0,-24(s0)
    802004aa:	60e2                	ld	ra,24(sp)
    802004ac:	6442                	ld	s0,16(sp)
    802004ae:	6105                	addi	sp,sp,32
    802004b0:	8082                	ret

00000000802004b2 <_ZN5riscv8register4time5_read17h69bb971384720cddE>:
        unsafe fn _read() -> usize {
    802004b2:	1101                	addi	sp,sp,-32
                    core::arch::asm!("csrrs {0}, {1}, x0", out(reg) r, const $csr_number);
    802004b4:	ec06                	sd	ra,24(sp)
    802004b6:	e822                	sd	s0,16(sp)
    802004b8:	1000                	addi	s0,sp,32
    802004ba:	c0102573          	rdtime	a0
    802004be:	fea43423          	sd	a0,-24(s0)
    802004c2:	a009                	j	802004c4 <_ZN5riscv8register4time5_read17h69bb971384720cddE+0x12>
        }
    802004c4:	fe843503          	ld	a0,-24(s0)
    802004c8:	60e2                	ld	ra,24(sp)
    802004ca:	6442                	ld	s0,16(sp)
    802004cc:	6105                	addi	sp,sp,32
    802004ce:	8082                	ret

00000000802004d0 <_ZN4core4iter8adapters3map16Map$LT$I$C$F$GT$3new17h9a1506bcf38e909eE>:
    802004d0:	7179                	addi	sp,sp,-48
    802004d2:	f406                	sd	ra,40(sp)
    802004d4:	f022                	sd	s0,32(sp)
    802004d6:	1800                	addi	s0,sp,48
    802004d8:	fcb43c23          	sd	a1,-40(s0)
    802004dc:	fec43023          	sd	a2,-32(s0)
    802004e0:	fed43423          	sd	a3,-24(s0)
    802004e4:	e10c                	sd	a1,0(a0)
    802004e6:	e510                	sd	a2,8(a0)
    802004e8:	e914                	sd	a3,16(a0)
    802004ea:	70a2                	ld	ra,40(sp)
    802004ec:	7402                	ld	s0,32(sp)
    802004ee:	6145                	addi	sp,sp,48
    802004f0:	8082                	ret

00000000802004f2 <_ZN4core4iter8adapters3map12map_try_fold17hff4084a816f85bbaE>:
    802004f2:	7139                	addi	sp,sp,-64
    802004f4:	fc06                	sd	ra,56(sp)
    802004f6:	f822                	sd	s0,48(sp)
    802004f8:	0080                	addi	s0,sp,64
    802004fa:	fcb43423          	sd	a1,-56(s0)
    802004fe:	85aa                	mv	a1,a0
    80200500:	fc843503          	ld	a0,-56(s0)
    80200504:	feb43023          	sd	a1,-32(s0)
    80200508:	fea43423          	sd	a0,-24(s0)
    8020050c:	fca43823          	sd	a0,-48(s0)
    80200510:	fcb43c23          	sd	a1,-40(s0)
    80200514:	70e2                	ld	ra,56(sp)
    80200516:	7442                	ld	s0,48(sp)
    80200518:	6121                	addi	sp,sp,64
    8020051a:	8082                	ret

000000008020051c <_ZN4core4iter8adapters3map12map_try_fold28_$u7b$$u7b$closure$u7d$$u7d$17hc2186eec782eea40E>:
    8020051c:	711d                	addi	sp,sp,-96
    8020051e:	ec86                	sd	ra,88(sp)
    80200520:	e8a2                	sd	s0,80(sp)
    80200522:	1080                	addi	s0,sp,96
    80200524:	fca43c23          	sd	a0,-40(s0)
    80200528:	feb43423          	sd	a1,-24(s0)
    8020052c:	862a                	mv	a2,a0
    8020052e:	fac43c23          	sd	a2,-72(s0)
    80200532:	6508                	ld	a0,8(a0)
    80200534:	fcb43823          	sd	a1,-48(s0)
    80200538:	00005097          	auipc	ra,0x5
    8020053c:	236080e7          	jalr	566(ra) # 8020576e <_ZN2os4task11TaskManager14find_next_task28_$u7b$$u7b$closure$u7d$$u7d$17hffbd26f294bd4560E>
    80200540:	fca43023          	sd	a0,-64(s0)
    80200544:	a009                	j	80200546 <_ZN4core4iter8adapters3map12map_try_fold28_$u7b$$u7b$closure$u7d$$u7d$17hc2186eec782eea40E+0x2a>
    80200546:	fc043583          	ld	a1,-64(s0)
    8020054a:	fb843503          	ld	a0,-72(s0)
    8020054e:	fcb43423          	sd	a1,-56(s0)
    80200552:	00000097          	auipc	ra,0x0
    80200556:	cf6080e7          	jalr	-778(ra) # 80200248 <_ZN4core4iter6traits8iterator8Iterator4find5check28_$u7b$$u7b$closure$u7d$$u7d$17h2c523c505bed8185E>
    8020055a:	faa43423          	sd	a0,-88(s0)
    8020055e:	fab43823          	sd	a1,-80(s0)
    80200562:	a009                	j	80200564 <_ZN4core4iter8adapters3map12map_try_fold28_$u7b$$u7b$closure$u7d$$u7d$17hc2186eec782eea40E+0x48>
    80200564:	fb043583          	ld	a1,-80(s0)
    80200568:	fa843503          	ld	a0,-88(s0)
    8020056c:	60e6                	ld	ra,88(sp)
    8020056e:	6446                	ld	s0,80(sp)
    80200570:	6125                	addi	sp,sp,96
    80200572:	8082                	ret

0000000080200574 <_ZN102_$LT$core..iter..adapters..map..Map$LT$I$C$F$GT$$u20$as$u20$core..iter..traits..iterator..Iterator$GT$8try_fold17h17037fa8b198e532E>:
    80200574:	715d                	addi	sp,sp,-80
    80200576:	e486                	sd	ra,72(sp)
    80200578:	e0a2                	sd	s0,64(sp)
    8020057a:	0880                	addi	s0,sp,80
    8020057c:	fca43c23          	sd	a0,-40(s0)
    80200580:	feb43423          	sd	a1,-24(s0)
    80200584:	862a                	mv	a2,a0
    80200586:	fcc43023          	sd	a2,-64(s0)
    8020058a:	0541                	addi	a0,a0,16
    8020058c:	00000097          	auipc	ra,0x0
    80200590:	f66080e7          	jalr	-154(ra) # 802004f2 <_ZN4core4iter8adapters3map12map_try_fold17hff4084a816f85bbaE>
    80200594:	fca43423          	sd	a0,-56(s0)
    80200598:	fcb43823          	sd	a1,-48(s0)
    8020059c:	a009                	j	8020059e <_ZN102_$LT$core..iter..adapters..map..Map$LT$I$C$F$GT$$u20$as$u20$core..iter..traits..iterator..Iterator$GT$8try_fold17h17037fa8b198e532E+0x2a>
    8020059e:	fd043603          	ld	a2,-48(s0)
    802005a2:	fc843583          	ld	a1,-56(s0)
    802005a6:	fc043503          	ld	a0,-64(s0)
    802005aa:	00004097          	auipc	ra,0x4
    802005ae:	90a080e7          	jalr	-1782(ra) # 80203eb4 <_ZN4core4iter6traits8iterator8Iterator8try_fold17h28960ca04afff006E>
    802005b2:	faa43823          	sd	a0,-80(s0)
    802005b6:	fab43c23          	sd	a1,-72(s0)
    802005ba:	a009                	j	802005bc <_ZN102_$LT$core..iter..adapters..map..Map$LT$I$C$F$GT$$u20$as$u20$core..iter..traits..iterator..Iterator$GT$8try_fold17h17037fa8b198e532E+0x48>
    802005bc:	fb843583          	ld	a1,-72(s0)
    802005c0:	fb043503          	ld	a0,-80(s0)
    802005c4:	60a6                	ld	ra,72(sp)
    802005c6:	6406                	ld	s0,64(sp)
    802005c8:	6161                	addi	sp,sp,80
    802005ca:	8082                	ret

00000000802005cc <_ZN4core4iter6traits8iterator8Iterator4find17h77b2f1de624904f8E>:
    802005cc:	711d                	addi	sp,sp,-96
    802005ce:	ec86                	sd	ra,88(sp)
    802005d0:	e8a2                	sd	s0,80(sp)
    802005d2:	1080                	addi	s0,sp,96
    802005d4:	fcb43423          	sd	a1,-56(s0)
    802005d8:	85aa                	mv	a1,a0
    802005da:	fc843503          	ld	a0,-56(s0)
    802005de:	fcb43823          	sd	a1,-48(s0)
    802005e2:	feb43023          	sd	a1,-32(s0)
    802005e6:	fea43423          	sd	a0,-24(s0)
    802005ea:	00000097          	auipc	ra,0x0
    802005ee:	c46080e7          	jalr	-954(ra) # 80200230 <_ZN4core4iter6traits8iterator8Iterator4find5check17h7ce5ca3f54227448E>
    802005f2:	fca43c23          	sd	a0,-40(s0)
    802005f6:	a009                	j	802005f8 <_ZN4core4iter6traits8iterator8Iterator4find17h77b2f1de624904f8E+0x2c>
    802005f8:	fd843583          	ld	a1,-40(s0)
    802005fc:	fd043503          	ld	a0,-48(s0)
    80200600:	00000097          	auipc	ra,0x0
    80200604:	f74080e7          	jalr	-140(ra) # 80200574 <_ZN102_$LT$core..iter..adapters..map..Map$LT$I$C$F$GT$$u20$as$u20$core..iter..traits..iterator..Iterator$GT$8try_fold17h17037fa8b198e532E>
    80200608:	faa43c23          	sd	a0,-72(s0)
    8020060c:	fcb43023          	sd	a1,-64(s0)
    80200610:	a009                	j	80200612 <_ZN4core4iter6traits8iterator8Iterator4find17h77b2f1de624904f8E+0x46>
    80200612:	fc043583          	ld	a1,-64(s0)
    80200616:	fb843503          	ld	a0,-72(s0)
    8020061a:	00008097          	auipc	ra,0x8
    8020061e:	39a080e7          	jalr	922(ra) # 802089b4 <_ZN4core3ops12control_flow24ControlFlow$LT$B$C$C$GT$11break_value17h8b60e4c3a31cb834E>
    80200622:	faa43423          	sd	a0,-88(s0)
    80200626:	fab43823          	sd	a1,-80(s0)
    8020062a:	a009                	j	8020062c <_ZN4core4iter6traits8iterator8Iterator4find17h77b2f1de624904f8E+0x60>
    8020062c:	fb043583          	ld	a1,-80(s0)
    80200630:	fa843503          	ld	a0,-88(s0)
    80200634:	60e6                	ld	ra,88(sp)
    80200636:	6446                	ld	s0,80(sp)
    80200638:	6125                	addi	sp,sp,96
    8020063a:	8082                	ret

000000008020063c <_ZN4core3ptr9const_ptr33_$LT$impl$u20$$BP$const$u20$T$GT$4cast17h3822b29dd1f619e0E>:
    8020063c:	1101                	addi	sp,sp,-32
    8020063e:	ec06                	sd	ra,24(sp)
    80200640:	e822                	sd	s0,16(sp)
    80200642:	1000                	addi	s0,sp,32
    80200644:	fea43423          	sd	a0,-24(s0)
    80200648:	60e2                	ld	ra,24(sp)
    8020064a:	6442                	ld	s0,16(sp)
    8020064c:	6105                	addi	sp,sp,32
    8020064e:	8082                	ret

0000000080200650 <_ZN4core3ptr9const_ptr33_$LT$impl$u20$$BP$const$u20$T$GT$13read_volatile17h1bc3af491bf0943fE>:
    80200650:	1101                	addi	sp,sp,-32
    80200652:	ec06                	sd	ra,24(sp)
    80200654:	e822                	sd	s0,16(sp)
    80200656:	1000                	addi	s0,sp,32
    80200658:	fea43423          	sd	a0,-24(s0)
    8020065c:	00000097          	auipc	ra,0x0
    80200660:	dca080e7          	jalr	-566(ra) # 80200426 <_ZN4core3ptr13read_volatile17hda164a55d7cbe1b9E>
    80200664:	fea43023          	sd	a0,-32(s0)
    80200668:	a009                	j	8020066a <_ZN4core3ptr9const_ptr33_$LT$impl$u20$$BP$const$u20$T$GT$13read_volatile17h1bc3af491bf0943fE+0x1a>
    8020066a:	fe043503          	ld	a0,-32(s0)
    8020066e:	60e2                	ld	ra,24(sp)
    80200670:	6442                	ld	s0,16(sp)
    80200672:	6105                	addi	sp,sp,32
    80200674:	8082                	ret

0000000080200676 <_ZN4core3str11validations15next_code_point17hb468a13043f92323E>:
    80200676:	7155                	addi	sp,sp,-208
    80200678:	e586                	sd	ra,200(sp)
    8020067a:	e1a2                	sd	s0,192(sp)
    8020067c:	0980                	addi	s0,sp,208
    8020067e:	f8a43c23          	sd	a0,-104(s0)
    80200682:	fca43023          	sd	a0,-64(s0)
    80200686:	00005097          	auipc	ra,0x5
    8020068a:	dfe080e7          	jalr	-514(ra) # 80205484 <_ZN91_$LT$core..slice..iter..Iter$LT$T$GT$$u20$as$u20$core..iter..traits..iterator..Iterator$GT$4next17h8ad16db22fb4d558E>
    8020068e:	faa43023          	sd	a0,-96(s0)
    80200692:	a009                	j	80200694 <_ZN4core3str11validations15next_code_point17hb468a13043f92323E+0x1e>
    80200694:	fa043503          	ld	a0,-96(s0)
    80200698:	00003097          	auipc	ra,0x3
    8020069c:	67a080e7          	jalr	1658(ra) # 80203d12 <_ZN75_$LT$core..option..Option$LT$T$GT$$u20$as$u20$core..ops..try_trait..Try$GT$6branch17h5fd85bf6f565445cE>
    802006a0:	faa43823          	sd	a0,-80(s0)
    802006a4:	a009                	j	802006a6 <_ZN4core3str11validations15next_code_point17hb468a13043f92323E+0x30>
    802006a6:	fb043503          	ld	a0,-80(s0)
    802006aa:	00153593          	seqz	a1,a0
    802006ae:	4581                	li	a1,0
    802006b0:	00b51563          	bne	a0,a1,802006ba <_ZN4core3str11validations15next_code_point17hb468a13043f92323E+0x44>
    802006b4:	a009                	j	802006b6 <_ZN4core3str11validations15next_code_point17hb468a13043f92323E+0x40>
    802006b6:	a015                	j	802006da <_ZN4core3str11validations15next_code_point17hb468a13043f92323E+0x64>
    802006b8:	0000                	unimp
    802006ba:	fb043503          	ld	a0,-80(s0)
    802006be:	fca43823          	sd	a0,-48(s0)
    802006c2:	00050503          	lb	a0,0(a0)
    802006c6:	0ff57593          	andi	a1,a0,255
    802006ca:	f8b43823          	sd	a1,-112(s0)
    802006ce:	fca40fa3          	sb	a0,-33(s0)
    802006d2:	4581                	li	a1,0
    802006d4:	02b55b63          	bge	a0,a1,8020070a <_ZN4core3str11validations15next_code_point17hb468a13043f92323E+0x94>
    802006d8:	a821                	j	802006f0 <_ZN4core3str11validations15next_code_point17hb468a13043f92323E+0x7a>
    802006da:	00003097          	auipc	ra,0x3
    802006de:	676080e7          	jalr	1654(ra) # 80203d50 <_ZN84_$LT$core..option..Option$LT$T$GT$$u20$as$u20$core..ops..try_trait..FromResidual$GT$13from_residual17h29a88a0175f226f1E>
    802006e2:	faa42423          	sw	a0,-88(s0)
    802006e6:	fab42623          	sw	a1,-84(s0)
    802006ea:	a009                	j	802006ec <_ZN4core3str11validations15next_code_point17hb468a13043f92323E+0x76>
#![no_std]
    802006ec:	a009                	j	802006ee <_ZN4core3str11validations15next_code_point17hb468a13043f92323E+0x78>
    802006ee:	a035                	j	8020071a <_ZN4core3str11validations15next_code_point17hb468a13043f92323E+0xa4>
    802006f0:	f9043503          	ld	a0,-112(s0)
    802006f4:	4589                	li	a1,2
    802006f6:	00001097          	auipc	ra,0x1
    802006fa:	c68080e7          	jalr	-920(ra) # 8020135e <_ZN4core3str11validations15utf8_first_byte17h8241fad75f74c2b9E>
    802006fe:	85aa                	mv	a1,a0
    80200700:	f8b43423          	sd	a1,-120(s0)
    80200704:	fea42023          	sw	a0,-32(s0)
    80200708:	a00d                	j	8020072a <_ZN4core3str11validations15next_code_point17hb468a13043f92323E+0xb4>
    8020070a:	f9043503          	ld	a0,-112(s0)
    8020070e:	faa42623          	sw	a0,-84(s0)
    80200712:	4505                	li	a0,1
    80200714:	faa42423          	sw	a0,-88(s0)
    80200718:	bfd9                	j	802006ee <_ZN4core3str11validations15next_code_point17hb468a13043f92323E+0x78>
    8020071a:	fa842503          	lw	a0,-88(s0)
    8020071e:	fac42583          	lw	a1,-84(s0)
    80200722:	60ae                	ld	ra,200(sp)
    80200724:	640e                	ld	s0,192(sp)
    80200726:	6169                	addi	sp,sp,208
    80200728:	8082                	ret
    8020072a:	f9843503          	ld	a0,-104(s0)
    8020072e:	00005097          	auipc	ra,0x5
    80200732:	d56080e7          	jalr	-682(ra) # 80205484 <_ZN91_$LT$core..slice..iter..Iter$LT$T$GT$$u20$as$u20$core..iter..traits..iterator..Iterator$GT$4next17h8ad16db22fb4d558E>
    80200736:	f8a43023          	sd	a0,-128(s0)
    8020073a:	a009                	j	8020073c <_ZN4core3str11validations15next_code_point17hb468a13043f92323E+0xc6>
    8020073c:	f8043503          	ld	a0,-128(s0)

0000000080200740 <.LBB0_26>:
    80200740:	0000c597          	auipc	a1,0xc
    80200744:	a1858593          	addi	a1,a1,-1512 # 8020c158 <.L__unnamed_1>
    80200748:	00003097          	auipc	ra,0x3
    8020074c:	4dc080e7          	jalr	1244(ra) # 80203c24 <_ZN4core6option15Option$LT$T$GT$16unwrap_unchecked17he8d31e0ca2a42973E>
    80200750:	f6a43c23          	sd	a0,-136(s0)
    80200754:	a009                	j	80200756 <.LBB0_26+0x16>
    80200756:	f8843503          	ld	a0,-120(s0)
    8020075a:	f7843583          	ld	a1,-136(s0)
    8020075e:	0005c583          	lbu	a1,0(a1)
    80200762:	f6b43823          	sd	a1,-144(s0)
    80200766:	feb40323          	sb	a1,-26(s0)
    8020076a:	00001097          	auipc	ra,0x1
    8020076e:	c1a080e7          	jalr	-998(ra) # 80201384 <_ZN4core3str11validations18utf8_acc_cont_byte17h5904d0def233af40E>
    80200772:	faa42e23          	sw	a0,-68(s0)
    80200776:	a009                	j	80200778 <.LBB0_26+0x38>
    80200778:	f9043583          	ld	a1,-112(s0)
    8020077c:	0df00513          	li	a0,223
    80200780:	00b56b63          	bltu	a0,a1,80200796 <.LBB0_26+0x56>
    80200784:	a009                	j	80200786 <.LBB0_26+0x46>
    80200786:	fbc42503          	lw	a0,-68(s0)
    8020078a:	faa42623          	sw	a0,-84(s0)
    8020078e:	4505                	li	a0,1
    80200790:	faa42423          	sw	a0,-88(s0)
    80200794:	b759                	j	8020071a <_ZN4core3str11validations15next_code_point17hb468a13043f92323E+0xa4>
    80200796:	f9843503          	ld	a0,-104(s0)
    8020079a:	00005097          	auipc	ra,0x5
    8020079e:	cea080e7          	jalr	-790(ra) # 80205484 <_ZN91_$LT$core..slice..iter..Iter$LT$T$GT$$u20$as$u20$core..iter..traits..iterator..Iterator$GT$4next17h8ad16db22fb4d558E>
    802007a2:	f6a43423          	sd	a0,-152(s0)
    802007a6:	a009                	j	802007a8 <.LBB0_26+0x68>
    802007a8:	f6843503          	ld	a0,-152(s0)

00000000802007ac <.LBB0_27>:
    802007ac:	0000c597          	auipc	a1,0xc
    802007b0:	9c458593          	addi	a1,a1,-1596 # 8020c170 <.L__unnamed_2>
    802007b4:	00003097          	auipc	ra,0x3
    802007b8:	470080e7          	jalr	1136(ra) # 80203c24 <_ZN4core6option15Option$LT$T$GT$16unwrap_unchecked17he8d31e0ca2a42973E>
    802007bc:	f6a43023          	sd	a0,-160(s0)
    802007c0:	a009                	j	802007c2 <.LBB0_27+0x16>
    802007c2:	f7043503          	ld	a0,-144(s0)
    802007c6:	f6043583          	ld	a1,-160(s0)
    802007ca:	00058583          	lb	a1,0(a1)
    802007ce:	feb403a3          	sb	a1,-25(s0)
    802007d2:	03f57513          	andi	a0,a0,63
    802007d6:	00001097          	auipc	ra,0x1
    802007da:	bae080e7          	jalr	-1106(ra) # 80201384 <_ZN4core3str11validations18utf8_acc_cont_byte17h5904d0def233af40E>
    802007de:	85aa                	mv	a1,a0
    802007e0:	f4b43c23          	sd	a1,-168(s0)
    802007e4:	fea42423          	sw	a0,-24(s0)
    802007e8:	a009                	j	802007ea <.LBB0_27+0x3e>
    802007ea:	f9043583          	ld	a1,-112(s0)
    802007ee:	f5843603          	ld	a2,-168(s0)
    802007f2:	f8843503          	ld	a0,-120(s0)
    802007f6:	0532                	slli	a0,a0,0xc
    802007f8:	8d51                	or	a0,a0,a2
    802007fa:	faa42e23          	sw	a0,-68(s0)
    802007fe:	0ef00513          	li	a0,239
    80200802:	00b56463          	bltu	a0,a1,8020080a <.LBB0_27+0x5e>
    80200806:	a009                	j	80200808 <.LBB0_27+0x5c>
    80200808:	bfbd                	j	80200786 <.LBB0_26+0x46>
    8020080a:	f9843503          	ld	a0,-104(s0)
    8020080e:	00005097          	auipc	ra,0x5
    80200812:	c76080e7          	jalr	-906(ra) # 80205484 <_ZN91_$LT$core..slice..iter..Iter$LT$T$GT$$u20$as$u20$core..iter..traits..iterator..Iterator$GT$4next17h8ad16db22fb4d558E>
    80200816:	f4a43823          	sd	a0,-176(s0)
    8020081a:	a009                	j	8020081c <.LBB0_27+0x70>
    8020081c:	f5043503          	ld	a0,-176(s0)

0000000080200820 <.LBB0_28>:
    80200820:	0000c597          	auipc	a1,0xc
    80200824:	96858593          	addi	a1,a1,-1688 # 8020c188 <.L__unnamed_3>
    80200828:	00003097          	auipc	ra,0x3
    8020082c:	3fc080e7          	jalr	1020(ra) # 80203c24 <_ZN4core6option15Option$LT$T$GT$16unwrap_unchecked17he8d31e0ca2a42973E>
    80200830:	f4a43423          	sd	a0,-184(s0)
    80200834:	a009                	j	80200836 <.LBB0_28+0x16>
    80200836:	f5843503          	ld	a0,-168(s0)
    8020083a:	f8843603          	ld	a2,-120(s0)
    8020083e:	f4843583          	ld	a1,-184(s0)
    80200842:	00058583          	lb	a1,0(a1)
    80200846:	feb407a3          	sb	a1,-17(s0)
    8020084a:	8a1d                	andi	a2,a2,7
    8020084c:	064a                	slli	a2,a2,0x12
    8020084e:	f2c43c23          	sd	a2,-200(s0)
    80200852:	00001097          	auipc	ra,0x1
    80200856:	b32080e7          	jalr	-1230(ra) # 80201384 <_ZN4core3str11validations18utf8_acc_cont_byte17h5904d0def233af40E>
    8020085a:	f4a43023          	sd	a0,-192(s0)
    8020085e:	a009                	j	80200860 <.LBB0_28+0x40>
    80200860:	f3843503          	ld	a0,-200(s0)
    80200864:	f4043583          	ld	a1,-192(s0)
    80200868:	8d4d                	or	a0,a0,a1
    8020086a:	faa42e23          	sw	a0,-68(s0)
    8020086e:	bf69                	j	80200808 <.LBB0_27+0x5c>

0000000080200870 <_ZN5riscv8register3sie4_set17h830eab1a45704329E>:
macro_rules! set {
    ($csr_number:expr, $asm_fn: ident) => {
        /// Set the CSR
        #[inline]
        #[allow(unused_variables)]
        unsafe fn _set(bits: usize) {
    80200870:	1101                	addi	sp,sp,-32
    80200872:	ec06                	sd	ra,24(sp)
    80200874:	e822                	sd	s0,16(sp)
    80200876:	1000                	addi	s0,sp,32
    80200878:	fea43423          	sd	a0,-24(s0)
            match () {
                #[cfg(all(riscv, feature = "inline-asm"))]
                () => core::arch::asm!("csrrs x0, {1}, {0}", in(reg) bits, const $csr_number),
    8020087c:	10452073          	csrs	sie,a0
    80200880:	a009                	j	80200882 <_ZN5riscv8register3sie4_set17h830eab1a45704329E+0x12>
                }

                #[cfg(not(riscv))]
                () => unimplemented!(),
            }
        }
    80200882:	60e2                	ld	ra,24(sp)
    80200884:	6442                	ld	s0,16(sp)
    80200886:	6105                	addi	sp,sp,32
    80200888:	8082                	ret

000000008020088a <_ZN5riscv8register3sie10set_stimer17h6a200406a1fafe6dE>:

macro_rules! set_csr {
    ($(#[$attr:meta])*, $set_field:ident, $e:expr) => {
        $(#[$attr])*
        #[inline]
        pub unsafe fn $set_field() {
    8020088a:	1141                	addi	sp,sp,-16
    8020088c:	e406                	sd	ra,8(sp)
    8020088e:	e022                	sd	s0,0(sp)
    80200890:	0800                	addi	s0,sp,16
    80200892:	02000513          	li	a0,32
            _set($e);
    80200896:	00000097          	auipc	ra,0x0
    8020089a:	fda080e7          	jalr	-38(ra) # 80200870 <_ZN5riscv8register3sie4_set17h830eab1a45704329E>
    8020089e:	a009                	j	802008a0 <_ZN5riscv8register3sie10set_stimer17h6a200406a1fafe6dE+0x16>
        }
    802008a0:	60a2                	ld	ra,8(sp)
    802008a2:	6402                	ld	s0,0(sp)
    802008a4:	0141                	addi	sp,sp,16
    802008a6:	8082                	ret

00000000802008a8 <_ZN2os9clear_bss17h7288bdef51ca03fbE>:
mod utils;

core::arch::global_asm!(include_str!("entry.asm"));
core::arch::global_asm!(include_str!("link_app.S"));

fn clear_bss() {
    802008a8:	7179                	addi	sp,sp,-48
    extern "C" {
        fn sbss();
        fn ebss();
    }
    unsafe {
        core::slice::from_raw_parts_mut(sbss as usize as *mut u8, ebss as usize - sbss as usize)
    802008aa:	f406                	sd	ra,40(sp)
    802008ac:	f022                	sd	s0,32(sp)
    802008ae:	1800                	addi	s0,sp,48

00000000802008b0 <.LBB0_5>:
    802008b0:	00051597          	auipc	a1,0x51
    802008b4:	75058593          	addi	a1,a1,1872 # 80252000 <boot_stack_top>

00000000802008b8 <.LBB0_6>:
    802008b8:	00072517          	auipc	a0,0x72
    802008bc:	74850513          	addi	a0,a0,1864 # 80273000 <ebss>
    802008c0:	40b505b3          	sub	a1,a0,a1
    802008c4:	feb43423          	sd	a1,-24(s0)
    802008c8:	02b56263          	bltu	a0,a1,802008ec <.LBB0_8>
    802008cc:	a009                	j	802008ce <.LBB0_6+0x16>
    802008ce:	fe843583          	ld	a1,-24(s0)

00000000802008d2 <.LBB0_7>:
    802008d2:	00051517          	auipc	a0,0x51
    802008d6:	72e50513          	addi	a0,a0,1838 # 80252000 <boot_stack_top>
    802008da:	00002097          	auipc	ra,0x2
    802008de:	5ac080e7          	jalr	1452(ra) # 80202e86 <_ZN4core5slice3raw18from_raw_parts_mut17he06edbb84a2143d8E>
    802008e2:	fca43c23          	sd	a0,-40(s0)
    802008e6:	feb43023          	sd	a1,-32(s0)
    802008ea:	a005                	j	8020090a <.LBB0_9+0x16>

00000000802008ec <.LBB0_8>:
    802008ec:	0000c517          	auipc	a0,0xc
    802008f0:	8e450513          	addi	a0,a0,-1820 # 8020c1d0 <str.0>

00000000802008f4 <.LBB0_9>:
    802008f4:	0000c617          	auipc	a2,0xc
    802008f8:	8bc60613          	addi	a2,a2,-1860 # 8020c1b0 <.L__unnamed_1>
    802008fc:	02100593          	li	a1,33
    80200900:	00008097          	auipc	ra,0x8
    80200904:	698080e7          	jalr	1688(ra) # 80208f98 <_ZN4core9panicking5panic17h632812a876026437E>
    80200908:	0000                	unimp
    8020090a:	fe043583          	ld	a1,-32(s0)
    8020090e:	fd843503          	ld	a0,-40(s0)
    80200912:	4601                	li	a2,0
    80200914:	00001097          	auipc	ra,0x1
    80200918:	7b8080e7          	jalr	1976(ra) # 802020cc <_ZN4core5slice29_$LT$impl$u20$$u5b$T$u5d$$GT$4fill17hf899edfa0ed9f8deE>
    8020091c:	a009                	j	8020091e <.LBB0_9+0x2a>
            .fill(0);
    }
}
    8020091e:	70a2                	ld	ra,40(sp)
    80200920:	7402                	ld	s0,32(sp)
    80200922:	6145                	addi	sp,sp,48
    80200924:	8082                	ret

0000000080200926 <rust_main>:

#[no_mangle]
pub fn rust_main() -> ! {
    80200926:	7139                	addi	sp,sp,-64
    clear_bss();
    80200928:	fc06                	sd	ra,56(sp)
    8020092a:	f822                	sd	s0,48(sp)
    8020092c:	0080                	addi	s0,sp,64
    8020092e:	00000097          	auipc	ra,0x0
    80200932:	f7a080e7          	jalr	-134(ra) # 802008a8 <_ZN2os9clear_bss17h7288bdef51ca03fbE>
    80200936:	a009                	j	80200938 <rust_main+0x12>
    logging::init();
    80200938:	00002097          	auipc	ra,0x2
    8020093c:	ea4080e7          	jalr	-348(ra) # 802027dc <_ZN2os7logging4init17he25f6e0047493f6bE>
    80200940:	a009                	j	80200942 <.LBB1_11>

0000000080200942 <.LBB1_11>:
    println!("[kernel] Hello, world!");
    80200942:	0000c597          	auipc	a1,0xc
    80200946:	8c658593          	addi	a1,a1,-1850 # 8020c208 <.L__unnamed_2>

000000008020094a <.LBB1_12>:
    8020094a:	0000c697          	auipc	a3,0xc
    8020094e:	8ce68693          	addi	a3,a3,-1842 # 8020c218 <.L__unnamed_4>
    80200952:	fc040513          	addi	a0,s0,-64
    80200956:	4605                	li	a2,1
    80200958:	4701                	li	a4,0
    8020095a:	00004097          	auipc	ra,0x4
    8020095e:	20a080e7          	jalr	522(ra) # 80204b64 <_ZN4core3fmt9Arguments6new_v117h9d5aba721c4dc286E>
    80200962:	a009                	j	80200964 <.LBB1_12+0x1a>
    80200964:	fc040513          	addi	a0,s0,-64
    80200968:	00000097          	auipc	ra,0x0
    8020096c:	760080e7          	jalr	1888(ra) # 802010c8 <_ZN2os7console5print17h426f04d58d8bc374E>
    80200970:	a009                	j	80200972 <.LBB1_12+0x28>
    heap_alloc::init_heap();
    80200972:	00000097          	auipc	ra,0x0
    80200976:	4e6080e7          	jalr	1254(ra) # 80200e58 <_ZN2os10heap_alloc9init_heap17h1bbace8f596f7b69E>
    8020097a:	a009                	j	8020097c <.LBB1_12+0x32>
    trap::init();
    8020097c:	00004097          	auipc	ra,0x4
    80200980:	b32080e7          	jalr	-1230(ra) # 802044ae <_ZN2os4trap4init17hc826df8b243d5749E>
    80200984:	a009                	j	80200986 <.LBB1_12+0x3c>
    loader::load_apps();
    80200986:	00005097          	auipc	ra,0x5
    8020098a:	176080e7          	jalr	374(ra) # 80205afc <_ZN2os6loader9load_apps17hcde1284569497aceE>
    8020098e:	a009                	j	80200990 <.LBB1_12+0x46>
    trap::enable_timer_interrupt();
    80200990:	00004097          	auipc	ra,0x4
    80200994:	b46080e7          	jalr	-1210(ra) # 802044d6 <_ZN2os4trap22enable_timer_interrupt17h2340131db35b046fE>
    80200998:	a009                	j	8020099a <.LBB1_12+0x50>
    timer::set_next_trigger();
    8020099a:	00002097          	auipc	ra,0x2
    8020099e:	97a080e7          	jalr	-1670(ra) # 80202314 <_ZN2os5timer16set_next_trigger17h92220458a14afa57E>
    802009a2:	a009                	j	802009a4 <.LBB1_12+0x5a>
    task::run_first_task();
    802009a4:	00001097          	auipc	ra,0x1
    802009a8:	350080e7          	jalr	848(ra) # 80201cf4 <_ZN2os4task14run_first_task17h0b438f0bb0f175adE>
    802009ac:	a009                	j	802009ae <.LBB1_13>

00000000802009ae <.LBB1_13>:
    panic!("Unreachable in rust_main!");
    802009ae:	0000c517          	auipc	a0,0xc
    802009b2:	86a50513          	addi	a0,a0,-1942 # 8020c218 <.L__unnamed_4>

00000000802009b6 <.LBB1_14>:
    802009b6:	0000c617          	auipc	a2,0xc
    802009ba:	88260613          	addi	a2,a2,-1918 # 8020c238 <.L__unnamed_5>
    802009be:	45e5                	li	a1,25
    802009c0:	00008097          	auipc	ra,0x8
    802009c4:	5d8080e7          	jalr	1496(ra) # 80208f98 <_ZN4core9panicking5panic17h632812a876026437E>
	...

00000000802009ca <_ZN4core3ops8function6FnOnce9call_once17h6c0a06027a0f2e7eE>:
    802009ca:	81010113          	addi	sp,sp,-2032 # 80251810 <edata+0xf810>
    current_task: usize,
}

lazy_static! {
    pub static ref TASK_MANAGER: TaskManager = {
        let num_app = get_num_app();
    802009ce:	7e113423          	sd	ra,2024(sp)
    802009d2:	7e813023          	sd	s0,2016(sp)
    802009d6:	7f010413          	addi	s0,sp,2032
    802009da:	6585                	lui	a1,0x1
    802009dc:	9d05859b          	addiw	a1,a1,-1584
    802009e0:	40b10133          	sub	sp,sp,a1
    802009e4:	75fd                	lui	a1,0xfffff
    802009e6:	e985859b          	addiw	a1,a1,-360
    802009ea:	95a2                	add	a1,a1,s0
    802009ec:	e188                	sd	a0,0(a1)
    802009ee:	00005097          	auipc	ra,0x5
    802009f2:	0e4080e7          	jalr	228(ra) # 80205ad2 <_ZN2os6loader11get_num_app17h6cc0017342a5bd73E>
    802009f6:	85aa                	mv	a1,a0
    802009f8:	767d                	lui	a2,0xfffff
    802009fa:	ea06061b          	addiw	a2,a2,-352
    802009fe:	9622                	add	a2,a2,s0
    80200a00:	e20c                	sd	a1,0(a2)
    80200a02:	fca43823          	sd	a0,-48(s0)
    80200a06:	757d                	lui	a0,0xfffff
    80200a08:	3085051b          	addiw	a0,a0,776
    80200a0c:	9522                	add	a0,a0,s0
        let mut tasks = [TaskControlBlock {
            task_cx: TaskContext::zero_init(),
    80200a0e:	75fd                	lui	a1,0xfffff
    80200a10:	ea85859b          	addiw	a1,a1,-344
    80200a14:	95a2                	add	a1,a1,s0
    80200a16:	e188                	sd	a0,0(a1)
    80200a18:	00000097          	auipc	ra,0x0
    80200a1c:	538080e7          	jalr	1336(ra) # 80200f50 <_ZN2os4task7context11TaskContext9zero_init17h56bde241bc7ae4a2E>
    80200a20:	757d                	lui	a0,0xfffff
    80200a22:	ea85051b          	addiw	a0,a0,-344
    80200a26:	9522                	add	a0,a0,s0
    80200a28:	610c                	ld	a1,0(a0)
    80200a2a:	4501                	li	a0,0
        let mut tasks = [TaskControlBlock {
    80200a2c:	767d                	lui	a2,0xfffff
    80200a2e:	3006061b          	addiw	a2,a2,768
    80200a32:	9622                	add	a2,a2,s0
    80200a34:	00a60023          	sb	a0,0(a2) # fffffffffffff000 <ebss+0xffffffff7fd8c000>
    80200a38:	757d                	lui	a0,0xfffff
    80200a3a:	2905051b          	addiw	a0,a0,656
    80200a3e:	9522                	add	a0,a0,s0
    80200a40:	07000613          	li	a2,112
    80200a44:	0000a097          	auipc	ra,0xa
    80200a48:	792080e7          	jalr	1938(ra) # 8020b1d6 <memcpy>
    80200a4c:	757d                	lui	a0,0xfffff
    80200a4e:	ed05051b          	addiw	a0,a0,-304
    80200a52:	9522                	add	a0,a0,s0
    80200a54:	75fd                	lui	a1,0xfffff
    80200a56:	2905859b          	addiw	a1,a1,656
    80200a5a:	95a2                	add	a1,a1,s0
    80200a5c:	767d                	lui	a2,0xfffff
    80200a5e:	eb06061b          	addiw	a2,a2,-336
    80200a62:	9622                	add	a2,a2,s0
    80200a64:	e20c                	sd	a1,0(a2)
    80200a66:	75fd                	lui	a1,0xfffff
    80200a68:	eb85859b          	addiw	a1,a1,-328
    80200a6c:	95a2                	add	a1,a1,s0
    80200a6e:	e188                	sd	a0,0(a1)
    80200a70:	a009                	j	80200a72 <_ZN4core3ops8function6FnOnce9call_once17h6c0a06027a0f2e7eE+0xa8>
    80200a72:	757d                	lui	a0,0xfffff
    80200a74:	eb05051b          	addiw	a0,a0,-336
    80200a78:	9522                	add	a0,a0,s0
    80200a7a:	610c                	ld	a1,0(a0)
    80200a7c:	757d                	lui	a0,0xfffff
    80200a7e:	eb85051b          	addiw	a0,a0,-328
    80200a82:	9522                	add	a0,a0,s0
    80200a84:	6108                	ld	a0,0(a0)
    80200a86:	767d                	lui	a2,0xfffff
    80200a88:	e906061b          	addiw	a2,a2,-368
    80200a8c:	9622                	add	a2,a2,s0
    80200a8e:	e208                	sd	a0,0(a2)
    80200a90:	02b50f63          	beq	a0,a1,80200ace <_ZN4core3ops8function6FnOnce9call_once17h6c0a06027a0f2e7eE+0x104>
    80200a94:	a009                	j	80200a96 <_ZN4core3ops8function6FnOnce9call_once17h6c0a06027a0f2e7eE+0xcc>
    80200a96:	757d                	lui	a0,0xfffff
    80200a98:	e905051b          	addiw	a0,a0,-368
    80200a9c:	9522                	add	a0,a0,s0
    80200a9e:	6108                	ld	a0,0(a0)
    80200aa0:	75fd                	lui	a1,0xfffff
    80200aa2:	2905859b          	addiw	a1,a1,656
    80200aa6:	95a2                	add	a1,a1,s0
    80200aa8:	07800613          	li	a2,120
    80200aac:	0000a097          	auipc	ra,0xa
    80200ab0:	72a080e7          	jalr	1834(ra) # 8020b1d6 <memcpy>
    80200ab4:	757d                	lui	a0,0xfffff
    80200ab6:	e905051b          	addiw	a0,a0,-368
    80200aba:	9522                	add	a0,a0,s0
    80200abc:	6108                	ld	a0,0(a0)
    80200abe:	07850513          	addi	a0,a0,120 # fffffffffffff078 <ebss+0xffffffff7fd8c078>
    80200ac2:	75fd                	lui	a1,0xfffff
    80200ac4:	eb85859b          	addiw	a1,a1,-328
    80200ac8:	95a2                	add	a1,a1,s0
    80200aca:	e188                	sd	a0,0(a1)
    80200acc:	b75d                	j	80200a72 <_ZN4core3ops8function6FnOnce9call_once17h6c0a06027a0f2e7eE+0xa8>
    80200ace:	757d                	lui	a0,0xfffff
    80200ad0:	ed05051b          	addiw	a0,a0,-304
    80200ad4:	9522                	add	a0,a0,s0
    80200ad6:	45a1                	li	a1,8
            task_status: TaskStatus::UnInit,
        }; MAX_APP_NUM];
        for (i, t) in tasks.iter_mut().enumerate().take(num_app) {
    80200ad8:	00003097          	auipc	ra,0x3
    80200adc:	a5a080e7          	jalr	-1446(ra) # 80203532 <_ZN4core5slice29_$LT$impl$u20$$u5b$T$u5d$$GT$8iter_mut17hfa429e1f5221bc6eE>
    80200ae0:	767d                	lui	a2,0xfffff
    80200ae2:	e786061b          	addiw	a2,a2,-392
    80200ae6:	9622                	add	a2,a2,s0
    80200ae8:	e208                	sd	a0,0(a2)
    80200aea:	862e                	mv	a2,a1
    80200aec:	757d                	lui	a0,0xfffff
    80200aee:	e785051b          	addiw	a0,a0,-392
    80200af2:	9522                	add	a0,a0,s0
    80200af4:	610c                	ld	a1,0(a0)
    80200af6:	757d                	lui	a0,0xfffff
    80200af8:	3b85051b          	addiw	a0,a0,952
    80200afc:	9522                	add	a0,a0,s0
    80200afe:	76fd                	lui	a3,0xfffff
    80200b00:	e806869b          	addiw	a3,a3,-384
    80200b04:	96a2                	add	a3,a3,s0
    80200b06:	e288                	sd	a0,0(a3)
    80200b08:	00004097          	auipc	ra,0x4
    80200b0c:	7ce080e7          	jalr	1998(ra) # 802052d6 <_ZN4core4iter6traits8iterator8Iterator9enumerate17ha0b17fd53a61c024E>
    80200b10:	757d                	lui	a0,0xfffff
    80200b12:	e805051b          	addiw	a0,a0,-384
    80200b16:	9522                	add	a0,a0,s0
    80200b18:	610c                	ld	a1,0(a0)
    80200b1a:	757d                	lui	a0,0xfffff
    80200b1c:	ea05051b          	addiw	a0,a0,-352
    80200b20:	9522                	add	a0,a0,s0
    80200b22:	6110                	ld	a2,0(a0)
    80200b24:	757d                	lui	a0,0xfffff
    80200b26:	3985051b          	addiw	a0,a0,920
    80200b2a:	9522                	add	a0,a0,s0
    80200b2c:	76fd                	lui	a3,0xfffff
    80200b2e:	e886869b          	addiw	a3,a3,-376
    80200b32:	96a2                	add	a3,a3,s0
    80200b34:	e288                	sd	a0,0(a3)
    80200b36:	fffff097          	auipc	ra,0xfffff
    80200b3a:	690080e7          	jalr	1680(ra) # 802001c6 <_ZN4core4iter6traits8iterator8Iterator4take17h10d1f940cc52527cE>
    80200b3e:	757d                	lui	a0,0xfffff
    80200b40:	e885051b          	addiw	a0,a0,-376
    80200b44:	9522                	add	a0,a0,s0
    80200b46:	610c                	ld	a1,0(a0)
    80200b48:	757d                	lui	a0,0xfffff
    80200b4a:	3785051b          	addiw	a0,a0,888
    80200b4e:	9522                	add	a0,a0,s0
    80200b50:	00001097          	auipc	ra,0x1
    80200b54:	746080e7          	jalr	1862(ra) # 80202296 <_ZN63_$LT$I$u20$as$u20$core..iter..traits..collect..IntoIterator$GT$9into_iter17hbe320e77ace6337eE>
    80200b58:	757d                	lui	a0,0xfffff
    80200b5a:	3905051b          	addiw	a0,a0,912
    80200b5e:	9522                	add	a0,a0,s0
    80200b60:	6108                	ld	a0,0(a0)
    80200b62:	75fd                	lui	a1,0xfffff
    80200b64:	3e85859b          	addiw	a1,a1,1000
    80200b68:	95a2                	add	a1,a1,s0
    80200b6a:	e188                	sd	a0,0(a1)
    80200b6c:	757d                	lui	a0,0xfffff
    80200b6e:	3885051b          	addiw	a0,a0,904
    80200b72:	9522                	add	a0,a0,s0
    80200b74:	6108                	ld	a0,0(a0)
    80200b76:	75fd                	lui	a1,0xfffff
    80200b78:	3e05859b          	addiw	a1,a1,992
    80200b7c:	95a2                	add	a1,a1,s0
    80200b7e:	e188                	sd	a0,0(a1)
    80200b80:	757d                	lui	a0,0xfffff
    80200b82:	3805051b          	addiw	a0,a0,896
    80200b86:	9522                	add	a0,a0,s0
    80200b88:	6108                	ld	a0,0(a0)
    80200b8a:	75fd                	lui	a1,0xfffff
    80200b8c:	3d85859b          	addiw	a1,a1,984
    80200b90:	95a2                	add	a1,a1,s0
    80200b92:	e188                	sd	a0,0(a1)
    80200b94:	757d                	lui	a0,0xfffff
    80200b96:	3785051b          	addiw	a0,a0,888
    80200b9a:	9522                	add	a0,a0,s0
    80200b9c:	6108                	ld	a0,0(a0)
    80200b9e:	75fd                	lui	a1,0xfffff
    80200ba0:	3d05859b          	addiw	a1,a1,976
    80200ba4:	95a2                	add	a1,a1,s0
    80200ba6:	e188                	sd	a0,0(a1)
    80200ba8:	a009                	j	80200baa <_ZN4core3ops8function6FnOnce9call_once17h6c0a06027a0f2e7eE+0x1e0>
    80200baa:	757d                	lui	a0,0xfffff
    80200bac:	3d05051b          	addiw	a0,a0,976
    80200bb0:	9522                	add	a0,a0,s0
    80200bb2:	00001097          	auipc	ra,0x1
    80200bb6:	694080e7          	jalr	1684(ra) # 80202246 <_ZN100_$LT$core..iter..adapters..take..Take$LT$I$GT$$u20$as$u20$core..iter..traits..iterator..Iterator$GT$4next17h421e8c27763c99bcE>
    80200bba:	767d                	lui	a2,0xfffff
    80200bbc:	3f86061b          	addiw	a2,a2,1016
    80200bc0:	9622                	add	a2,a2,s0
    80200bc2:	e20c                	sd	a1,0(a2)
    80200bc4:	767d                	lui	a2,0xfffff
    80200bc6:	3f06061b          	addiw	a2,a2,1008
    80200bca:	9622                	add	a2,a2,s0
    80200bcc:	e208                	sd	a0,0(a2)
    80200bce:	00b03533          	snez	a0,a1
    80200bd2:	4501                	li	a0,0
    80200bd4:	08a58963          	beq	a1,a0,80200c66 <_ZN4core3ops8function6FnOnce9call_once17h6c0a06027a0f2e7eE+0x29c>
    80200bd8:	a009                	j	80200bda <_ZN4core3ops8function6FnOnce9call_once17h6c0a06027a0f2e7eE+0x210>
    80200bda:	a011                	j	80200bde <_ZN4core3ops8function6FnOnce9call_once17h6c0a06027a0f2e7eE+0x214>
    80200bdc:	0000                	unimp
    80200bde:	757d                	lui	a0,0xfffff
    80200be0:	3f05051b          	addiw	a0,a0,1008
    80200be4:	9522                	add	a0,a0,s0
    80200be6:	6108                	ld	a0,0(a0)
    80200be8:	fca43c23          	sd	a0,-40(s0)
    80200bec:	75fd                	lui	a1,0xfffff
    80200bee:	3f85859b          	addiw	a1,a1,1016
    80200bf2:	95a2                	add	a1,a1,s0
    80200bf4:	618c                	ld	a1,0(a1)
    80200bf6:	767d                	lui	a2,0xfffff
    80200bf8:	e706061b          	addiw	a2,a2,-400
    80200bfc:	9622                	add	a2,a2,s0
    80200bfe:	e20c                	sd	a1,0(a2)
    80200c00:	feb43023          	sd	a1,-32(s0)
            t.task_cx = TaskContext::goto_restore(init_app_cx(i));
    80200c04:	00005097          	auipc	ra,0x5
    80200c08:	1da080e7          	jalr	474(ra) # 80205dde <_ZN2os6loader11init_app_cx17h30dae2d7a16b048cE>
    80200c0c:	85aa                	mv	a1,a0
    80200c0e:	757d                	lui	a0,0xfffff
    80200c10:	4005051b          	addiw	a0,a0,1024
    80200c14:	9522                	add	a0,a0,s0
    80200c16:	767d                	lui	a2,0xfffff
    80200c18:	e686061b          	addiw	a2,a2,-408
    80200c1c:	9622                	add	a2,a2,s0
    80200c1e:	e208                	sd	a0,0(a2)
    80200c20:	00000097          	auipc	ra,0x0
    80200c24:	380080e7          	jalr	896(ra) # 80200fa0 <_ZN2os4task7context11TaskContext12goto_restore17heff6d4e9c1c1fb48E>
    80200c28:	757d                	lui	a0,0xfffff
    80200c2a:	e685051b          	addiw	a0,a0,-408
    80200c2e:	9522                	add	a0,a0,s0
    80200c30:	610c                	ld	a1,0(a0)
    80200c32:	757d                	lui	a0,0xfffff
    80200c34:	e705051b          	addiw	a0,a0,-400
    80200c38:	9522                	add	a0,a0,s0
    80200c3a:	6108                	ld	a0,0(a0)
    80200c3c:	07000613          	li	a2,112
    80200c40:	0000a097          	auipc	ra,0xa
    80200c44:	596080e7          	jalr	1430(ra) # 8020b1d6 <memcpy>
    80200c48:	757d                	lui	a0,0xfffff
    80200c4a:	e705051b          	addiw	a0,a0,-400
    80200c4e:	9522                	add	a0,a0,s0
    80200c50:	610c                	ld	a1,0(a0)
    80200c52:	4505                	li	a0,1
            t.task_status = TaskStatus::Ready;
    80200c54:	767d                	lui	a2,0xfffff
    80200c56:	4776061b          	addiw	a2,a2,1143
    80200c5a:	9622                	add	a2,a2,s0
    80200c5c:	00a60023          	sb	a0,0(a2) # fffffffffffff000 <ebss+0xffffffff7fd8c000>
    80200c60:	06a58823          	sb	a0,112(a1) # fffffffffffff070 <ebss+0xffffffff7fd8c070>
        for (i, t) in tasks.iter_mut().enumerate().take(num_app) {
    80200c64:	b799                	j	80200baa <_ZN4core3ops8function6FnOnce9call_once17h6c0a06027a0f2e7eE+0x1e0>
    80200c66:	c1040513          	addi	a0,s0,-1008
    80200c6a:	75fd                	lui	a1,0xfffff
    80200c6c:	e485859b          	addiw	a1,a1,-440
    80200c70:	95a2                	add	a1,a1,s0
    80200c72:	e188                	sd	a0,0(a1)
    80200c74:	75fd                	lui	a1,0xfffff
    80200c76:	ed05859b          	addiw	a1,a1,-304
    80200c7a:	95a2                	add	a1,a1,s0
    80200c7c:	3c000613          	li	a2,960
        }
        TaskManager {
            num_app,
            inner: unsafe {
                UPSafeCell::new(TaskManagerInner {
                    tasks,
    80200c80:	76fd                	lui	a3,0xfffff
    80200c82:	e506869b          	addiw	a3,a3,-432
    80200c86:	96a2                	add	a3,a3,s0
    80200c88:	e290                	sd	a2,0(a3)
    80200c8a:	0000a097          	auipc	ra,0xa
    80200c8e:	54c080e7          	jalr	1356(ra) # 8020b1d6 <memcpy>
    80200c92:	757d                	lui	a0,0xfffff
    80200c94:	e485051b          	addiw	a0,a0,-440
    80200c98:	9522                	add	a0,a0,s0
    80200c9a:	610c                	ld	a1,0(a0)
    80200c9c:	757d                	lui	a0,0xfffff
    80200c9e:	e505051b          	addiw	a0,a0,-432
    80200ca2:	9522                	add	a0,a0,s0
    80200ca4:	6110                	ld	a2,0(a0)
    80200ca6:	84840513          	addi	a0,s0,-1976
                UPSafeCell::new(TaskManagerInner {
    80200caa:	76fd                	lui	a3,0xfffff
    80200cac:	e586869b          	addiw	a3,a3,-424
    80200cb0:	96a2                	add	a3,a3,s0
    80200cb2:	e288                	sd	a0,0(a3)
    80200cb4:	0000a097          	auipc	ra,0xa
    80200cb8:	522080e7          	jalr	1314(ra) # 8020b1d6 <memcpy>
    80200cbc:	757d                	lui	a0,0xfffff
    80200cbe:	e585051b          	addiw	a0,a0,-424
    80200cc2:	9522                	add	a0,a0,s0
    80200cc4:	610c                	ld	a1,0(a0)
    80200cc6:	4501                	li	a0,0
    80200cc8:	c0a43423          	sd	a0,-1016(s0)
    80200ccc:	757d                	lui	a0,0xfffff
    80200cce:	4785051b          	addiw	a0,a0,1144
    80200cd2:	9522                	add	a0,a0,s0
    80200cd4:	767d                	lui	a2,0xfffff
    80200cd6:	e606061b          	addiw	a2,a2,-416
    80200cda:	9622                	add	a2,a2,s0
    80200cdc:	e208                	sd	a0,0(a2)
    80200cde:	00001097          	auipc	ra,0x1
    80200ce2:	4a6080e7          	jalr	1190(ra) # 80202184 <_ZN2os4sync2up19UPSafeCell$LT$T$GT$3new17h2cbc133a3a7eb75cE>
    80200ce6:	757d                	lui	a0,0xfffff
    80200ce8:	ea05051b          	addiw	a0,a0,-352
    80200cec:	9522                	add	a0,a0,s0
    80200cee:	6110                	ld	a2,0(a0)
    80200cf0:	757d                	lui	a0,0xfffff
    80200cf2:	e985051b          	addiw	a0,a0,-360
    80200cf6:	9522                	add	a0,a0,s0
    80200cf8:	6108                	ld	a0,0(a0)
    80200cfa:	75fd                	lui	a1,0xfffff
    80200cfc:	e605859b          	addiw	a1,a1,-416
    80200d00:	95a2                	add	a1,a1,s0
    80200d02:	618c                	ld	a1,0(a1)
        TaskManager {
    80200d04:	e110                	sd	a2,0(a0)
    80200d06:	0521                	addi	a0,a0,8
    80200d08:	3d000613          	li	a2,976
    80200d0c:	0000a097          	auipc	ra,0xa
    80200d10:	4ca080e7          	jalr	1226(ra) # 8020b1d6 <memcpy>
    80200d14:	a009                	j	80200d16 <_ZN4core3ops8function6FnOnce9call_once17h6c0a06027a0f2e7eE+0x34c>
    80200d16:	6505                	lui	a0,0x1
    80200d18:	9d05051b          	addiw	a0,a0,-1584
    80200d1c:	912a                	add	sp,sp,a0
    80200d1e:	7e813083          	ld	ra,2024(sp)
    80200d22:	7e013403          	ld	s0,2016(sp)
    80200d26:	7f010113          	addi	sp,sp,2032
    80200d2a:	8082                	ret

0000000080200d2c <_ZN4core3ptr30drop_in_place$LT$$RF$usize$GT$17h526caa06a43af1eeE>:
    80200d2c:	1101                	addi	sp,sp,-32
    80200d2e:	ec06                	sd	ra,24(sp)
    80200d30:	e822                	sd	s0,16(sp)
    80200d32:	1000                	addi	s0,sp,32
    80200d34:	fea43423          	sd	a0,-24(s0)
    80200d38:	60e2                	ld	ra,24(sp)
    80200d3a:	6442                	ld	s0,16(sp)
    80200d3c:	6105                	addi	sp,sp,32
    80200d3e:	8082                	ret

0000000080200d40 <_ZN4core3ptr37drop_in_place$LT$core..fmt..Error$GT$17hbf9f143a0ab9659cE>:
    80200d40:	1101                	addi	sp,sp,-32
    80200d42:	ec06                	sd	ra,24(sp)
    80200d44:	e822                	sd	s0,16(sp)
    80200d46:	1000                	addi	s0,sp,32
    80200d48:	fea43423          	sd	a0,-24(s0)
    80200d4c:	60e2                	ld	ra,24(sp)
    80200d4e:	6442                	ld	s0,16(sp)
    80200d50:	6105                	addi	sp,sp,32
    80200d52:	8082                	ret

0000000080200d54 <_ZN4core3ptr39drop_in_place$LT$spin..once..Finish$GT$17h5fe89e188d7deb8bE>:
    80200d54:	1101                	addi	sp,sp,-32
    80200d56:	ec06                	sd	ra,24(sp)
    80200d58:	e822                	sd	s0,16(sp)
    80200d5a:	1000                	addi	s0,sp,32
    80200d5c:	fea43423          	sd	a0,-24(s0)
    80200d60:	00006097          	auipc	ra,0x6
    80200d64:	928080e7          	jalr	-1752(ra) # 80206688 <_ZN60_$LT$spin..once..Finish$u20$as$u20$core..ops..drop..Drop$GT$4drop17h84a92d451aa09f57E>
    80200d68:	a009                	j	80200d6a <_ZN4core3ptr39drop_in_place$LT$spin..once..Finish$GT$17h5fe89e188d7deb8bE+0x16>
    80200d6a:	60e2                	ld	ra,24(sp)
    80200d6c:	6442                	ld	s0,16(sp)
    80200d6e:	6105                	addi	sp,sp,32
    80200d70:	8082                	ret

0000000080200d72 <_ZN4core3ptr40drop_in_place$LT$log..SetLoggerError$GT$17h6bd65756bf201911E>:
    80200d72:	1101                	addi	sp,sp,-32
    80200d74:	ec06                	sd	ra,24(sp)
    80200d76:	e822                	sd	s0,16(sp)
    80200d78:	1000                	addi	s0,sp,32
    80200d7a:	fea43423          	sd	a0,-24(s0)
    80200d7e:	60e2                	ld	ra,24(sp)
    80200d80:	6442                	ld	s0,16(sp)
    80200d82:	6105                	addi	sp,sp,32
    80200d84:	8082                	ret

0000000080200d86 <_ZN4core3ptr45drop_in_place$LT$core..cell..BorrowRefMut$GT$17h5ceb3a58535eef77E>:
    80200d86:	1101                	addi	sp,sp,-32
    80200d88:	ec06                	sd	ra,24(sp)
    80200d8a:	e822                	sd	s0,16(sp)
    80200d8c:	1000                	addi	s0,sp,32
    80200d8e:	fea43423          	sd	a0,-24(s0)
    80200d92:	00000097          	auipc	ra,0x0
    80200d96:	082080e7          	jalr	130(ra) # 80200e14 <_ZN66_$LT$core..cell..BorrowRefMut$u20$as$u20$core..ops..drop..Drop$GT$4drop17h873fb7e741204e9bE>
    80200d9a:	a009                	j	80200d9c <_ZN4core3ptr45drop_in_place$LT$core..cell..BorrowRefMut$GT$17h5ceb3a58535eef77E+0x16>
    80200d9c:	60e2                	ld	ra,24(sp)
    80200d9e:	6442                	ld	s0,16(sp)
    80200da0:	6105                	addi	sp,sp,32
    80200da2:	8082                	ret

0000000080200da4 <_ZN4core3ptr46drop_in_place$LT$os..logging..SimpleLogger$GT$17h056b8f6304896674E>:
    80200da4:	1101                	addi	sp,sp,-32
    80200da6:	ec06                	sd	ra,24(sp)
    80200da8:	e822                	sd	s0,16(sp)
    80200daa:	1000                	addi	s0,sp,32
    80200dac:	fea43423          	sd	a0,-24(s0)
    80200db0:	60e2                	ld	ra,24(sp)
    80200db2:	6442                	ld	s0,16(sp)
    80200db4:	6105                	addi	sp,sp,32
    80200db6:	8082                	ret

0000000080200db8 <_ZN4core3ptr47drop_in_place$LT$core..cell..BorrowMutError$GT$17h479f5795b8247947E>:
    80200db8:	1101                	addi	sp,sp,-32
    80200dba:	ec06                	sd	ra,24(sp)
    80200dbc:	e822                	sd	s0,16(sp)
    80200dbe:	1000                	addi	s0,sp,32
    80200dc0:	fea43423          	sd	a0,-24(s0)
    80200dc4:	60e2                	ld	ra,24(sp)
    80200dc6:	6442                	ld	s0,16(sp)
    80200dc8:	6105                	addi	sp,sp,32
    80200dca:	8082                	ret

0000000080200dcc <_ZN4core3ptr48drop_in_place$LT$core..str..error..Utf8Error$GT$17hf8945b570f5adaa2E>:
    80200dcc:	1101                	addi	sp,sp,-32
    80200dce:	ec06                	sd	ra,24(sp)
    80200dd0:	e822                	sd	s0,16(sp)
    80200dd2:	1000                	addi	s0,sp,32
    80200dd4:	fea43423          	sd	a0,-24(s0)
    80200dd8:	60e2                	ld	ra,24(sp)
    80200dda:	6442                	ld	s0,16(sp)
    80200ddc:	6105                	addi	sp,sp,32
    80200dde:	8082                	ret

0000000080200de0 <_ZN4core3ptr52drop_in_place$LT$$RF$mut$u20$os..console..Stdout$GT$17hb8dd5185c8b25f8bE>:
    80200de0:	1101                	addi	sp,sp,-32
    80200de2:	ec06                	sd	ra,24(sp)
    80200de4:	e822                	sd	s0,16(sp)
    80200de6:	1000                	addi	s0,sp,32
    80200de8:	fea43423          	sd	a0,-24(s0)
    80200dec:	60e2                	ld	ra,24(sp)
    80200dee:	6442                	ld	s0,16(sp)
    80200df0:	6105                	addi	sp,sp,32
    80200df2:	8082                	ret

0000000080200df4 <_ZN4core3ptr73drop_in_place$LT$core..cell..RefMut$LT$os..task..TaskManagerInner$GT$$GT$17hec470914bda558b9E>:
    80200df4:	1101                	addi	sp,sp,-32
    80200df6:	ec06                	sd	ra,24(sp)
    80200df8:	e822                	sd	s0,16(sp)
    80200dfa:	1000                	addi	s0,sp,32
    80200dfc:	fea43423          	sd	a0,-24(s0)
    80200e00:	0521                	addi	a0,a0,8
    80200e02:	00000097          	auipc	ra,0x0
    80200e06:	f84080e7          	jalr	-124(ra) # 80200d86 <_ZN4core3ptr45drop_in_place$LT$core..cell..BorrowRefMut$GT$17h5ceb3a58535eef77E>
    80200e0a:	a009                	j	80200e0c <_ZN4core3ptr73drop_in_place$LT$core..cell..RefMut$LT$os..task..TaskManagerInner$GT$$GT$17hec470914bda558b9E+0x18>
    80200e0c:	60e2                	ld	ra,24(sp)
    80200e0e:	6442                	ld	s0,16(sp)
    80200e10:	6105                	addi	sp,sp,32
    80200e12:	8082                	ret

0000000080200e14 <_ZN66_$LT$core..cell..BorrowRefMut$u20$as$u20$core..ops..drop..Drop$GT$4drop17h873fb7e741204e9bE>:
    80200e14:	7179                	addi	sp,sp,-48
    80200e16:	f406                	sd	ra,40(sp)
    80200e18:	f022                	sd	s0,32(sp)
    80200e1a:	1800                	addi	s0,sp,48
    80200e1c:	fca43823          	sd	a0,-48(s0)
    80200e20:	fea43023          	sd	a0,-32(s0)
    80200e24:	6108                	ld	a0,0(a0)
    80200e26:	00004097          	auipc	ra,0x4
    80200e2a:	b2e080e7          	jalr	-1234(ra) # 80204954 <_ZN4core4cell13Cell$LT$T$GT$3get17ha6981e5906d47e55E>
    80200e2e:	85aa                	mv	a1,a0
    80200e30:	fcb43c23          	sd	a1,-40(s0)
    80200e34:	fea43423          	sd	a0,-24(s0)
    80200e38:	a009                	j	80200e3a <_ZN66_$LT$core..cell..BorrowRefMut$u20$as$u20$core..ops..drop..Drop$GT$4drop17h873fb7e741204e9bE+0x26>
    80200e3a:	fd843583          	ld	a1,-40(s0)
    80200e3e:	fd043503          	ld	a0,-48(s0)
    80200e42:	6108                	ld	a0,0(a0)
    80200e44:	0585                	addi	a1,a1,1
    80200e46:	00004097          	auipc	ra,0x4
    80200e4a:	a94080e7          	jalr	-1388(ra) # 802048da <_ZN4core4cell13Cell$LT$T$GT$3set17h2616dcd8ebd3dafcE>
    80200e4e:	a009                	j	80200e50 <_ZN66_$LT$core..cell..BorrowRefMut$u20$as$u20$core..ops..drop..Drop$GT$4drop17h873fb7e741204e9bE+0x3c>
    80200e50:	70a2                	ld	ra,40(sp)
    80200e52:	7402                	ld	s0,32(sp)
    80200e54:	6145                	addi	sp,sp,48
    80200e56:	8082                	ret

0000000080200e58 <_ZN2os10heap_alloc9init_heap17h1bbace8f596f7b69E>:
#[global_allocator]
static HEAP_ALLOCATOR: LockedHeap = LockedHeap::empty();

static mut HEAP_SPACE: [u8; KERNEL_HEAP_SIZE] = [0; KERNEL_HEAP_SIZE];

pub fn init_heap() {
    80200e58:	7175                	addi	sp,sp,-144
    unsafe {
        HEAP_ALLOCATOR
    80200e5a:	e506                	sd	ra,136(sp)
    80200e5c:	e122                	sd	s0,128(sp)
    80200e5e:	0900                	addi	s0,sp,144

0000000080200e60 <.LBB0_10>:
    80200e60:	00071517          	auipc	a0,0x71
    80200e64:	1a050513          	addi	a0,a0,416 # 80272000 <_ZN2os10heap_alloc14HEAP_ALLOCATOR17hb61bee6f891a7907E>
    80200e68:	00006097          	auipc	ra,0x6
    80200e6c:	034080e7          	jalr	52(ra) # 80206e9c <_ZN78_$LT$buddy_system_allocator..LockedHeap$u20$as$u20$core..ops..deref..Deref$GT$5deref17h949505f48d90af4cE>
    80200e70:	f8a43823          	sd	a0,-112(s0)
    80200e74:	a009                	j	80200e76 <.LBB0_10+0x16>
    80200e76:	f9043503          	ld	a0,-112(s0)
    80200e7a:	fca43423          	sd	a0,-56(s0)
    /// }
    /// ```
    #[inline(always)]
    pub fn lock(&self) -> MutexGuard<T> {
        MutexGuard {
            inner: self.inner.lock(),
    80200e7e:	85aa                	mv	a1,a0
    80200e80:	f8b43023          	sd	a1,-128(s0)
    80200e84:	fca43c23          	sd	a0,-40(s0)
    80200e88:	4601                	li	a2,0
    ///     // The lock is implicitly dropped at the end of the scope
    /// }
    /// ```
    #[inline(always)]
    pub fn lock(&self) -> TicketMutexGuard<T> {
        let ticket = self.next_ticket.fetch_add(1, Ordering::Relaxed);
    80200e8a:	fcc40b23          	sb	a2,-42(s0)
    80200e8e:	4585                	li	a1,1
    80200e90:	00001097          	auipc	ra,0x1
    80200e94:	6fc080e7          	jalr	1788(ra) # 8020258c <_ZN4core4sync6atomic11AtomicUsize9fetch_add17h1f0a1c1cd0aa55ceE>
    80200e98:	85aa                	mv	a1,a0
    80200e9a:	f8b43423          	sd	a1,-120(s0)
    80200e9e:	fea43023          	sd	a0,-32(s0)
    80200ea2:	a009                	j	80200ea4 <.LBB0_10+0x44>

        while self.next_serving.load(Ordering::Acquire) != ticket {
    80200ea4:	f8043503          	ld	a0,-128(s0)
    80200ea8:	0521                	addi	a0,a0,8
    80200eaa:	4589                	li	a1,2
    80200eac:	fcb40ba3          	sb	a1,-41(s0)
    80200eb0:	00001097          	auipc	ra,0x1
    80200eb4:	53a080e7          	jalr	1338(ra) # 802023ea <_ZN4core4sync6atomic11AtomicUsize4load17h4a38b6629ceff2f8E>
    80200eb8:	f8843583          	ld	a1,-120(s0)
    80200ebc:	00b50863          	beq	a0,a1,80200ecc <.LBB0_10+0x6c>
    80200ec0:	a009                	j	80200ec2 <.LBB0_10+0x62>
            crate::relax();
    80200ec2:	00001097          	auipc	ra,0x1
    80200ec6:	50e080e7          	jalr	1294(ra) # 802023d0 <_ZN4core4sync6atomic14spin_loop_hint17h325bad4fd027db67E>
    80200eca:	bfe9                	j	80200ea4 <.LBB0_10+0x44>
        }

        TicketMutexGuard {
            next_serving: &self.next_serving,
    80200ecc:	f8843603          	ld	a2,-120(s0)
    80200ed0:	f8043503          	ld	a0,-128(s0)
    80200ed4:	00850593          	addi	a1,a0,8
            // We know that we are the next ticket to be served,
            // so there's no other thread accessing the value.
            //
            // Every other thread has another ticket number so it's
            // definitely stuck in the spin loop above.
            value: unsafe { &mut *self.value.get() },
    80200ed8:	0541                	addi	a0,a0,16
    80200eda:	fea43423          	sd	a0,-24(s0)
        TicketMutexGuard {
    80200ede:	fab43823          	sd	a1,-80(s0)
    80200ee2:	fac43c23          	sd	a2,-72(s0)
    80200ee6:	fca43023          	sd	a0,-64(s0)
        MutexGuard {
    80200eea:	fac43023          	sd	a2,-96(s0)
    80200eee:	f8b43c23          	sd	a1,-104(s0)
    80200ef2:	faa43423          	sd	a0,-88(s0)
    80200ef6:	a009                	j	80200ef8 <.LBB0_10+0x98>
    80200ef8:	f9840513          	addi	a0,s0,-104
    80200efc:	00006097          	auipc	ra,0x6
    80200f00:	b04080e7          	jalr	-1276(ra) # 80206a00 <_ZN79_$LT$spin..mutex..MutexGuard$LT$T$GT$$u20$as$u20$core..ops..deref..DerefMut$GT$9deref_mut17h815636b20a776abaE>
    80200f04:	f6a43c23          	sd	a0,-136(s0)
    80200f08:	a009                	j	80200f0a <.LBB0_11>

0000000080200f0a <.LBB0_11>:
            .lock()
            .init(HEAP_SPACE.as_ptr() as usize, KERNEL_HEAP_SIZE);
    80200f0a:	00051517          	auipc	a0,0x51
    80200f0e:	0f650513          	addi	a0,a0,246 # 80252000 <boot_stack_top>
    80200f12:	000205b7          	lui	a1,0x20
    80200f16:	00008097          	auipc	ra,0x8
    80200f1a:	d22080e7          	jalr	-734(ra) # 80208c38 <_ZN4core5slice29_$LT$impl$u20$$u5b$T$u5d$$GT$6as_ptr17h89e6dce0cb6637ecE>
    80200f1e:	f6a43823          	sd	a0,-144(s0)
    80200f22:	a009                	j	80200f24 <.LBB0_11+0x1a>
        HEAP_ALLOCATOR
    80200f24:	f7043583          	ld	a1,-144(s0)
    80200f28:	f7843503          	ld	a0,-136(s0)
    80200f2c:	00020637          	lui	a2,0x20
    80200f30:	00006097          	auipc	ra,0x6
    80200f34:	f08080e7          	jalr	-248(ra) # 80206e38 <_ZN22buddy_system_allocator4Heap4init17h41c893c61289b259E>
    80200f38:	a009                	j	80200f3a <.LBB0_11+0x30>
    80200f3a:	f9840513          	addi	a0,s0,-104
            .init(HEAP_SPACE.as_ptr() as usize, KERNEL_HEAP_SIZE);
    80200f3e:	00006097          	auipc	ra,0x6
    80200f42:	a86080e7          	jalr	-1402(ra) # 802069c4 <_ZN4core3ptr80drop_in_place$LT$spin..mutex..MutexGuard$LT$buddy_system_allocator..Heap$GT$$GT$17h138724c454205a7dE>
    80200f46:	a009                	j	80200f48 <.LBB0_11+0x3e>
    }
}
    80200f48:	60aa                	ld	ra,136(sp)
    80200f4a:	640a                	ld	s0,128(sp)
    80200f4c:	6149                	addi	sp,sp,144
    80200f4e:	8082                	ret

0000000080200f50 <_ZN2os4task7context11TaskContext9zero_init17h56bde241bc7ae4a2E>:
    sp: usize,
    s: [usize; 12],
}

impl TaskContext {
    pub fn zero_init() -> Self {
    80200f50:	7175                	addi	sp,sp,-144
        Self {
            ra: 0,
            sp: 0,
            s: [0; 12],
    80200f52:	e506                	sd	ra,136(sp)
    80200f54:	e122                	sd	s0,128(sp)
    80200f56:	0900                	addi	s0,sp,144
    80200f58:	f8a43423          	sd	a0,-120(s0)
    80200f5c:	f9040513          	addi	a0,s0,-112
    80200f60:	f6a43c23          	sd	a0,-136(s0)
    80200f64:	4581                	li	a1,0
    80200f66:	f6b43823          	sd	a1,-144(s0)
    80200f6a:	06000613          	li	a2,96
    80200f6e:	f8c43023          	sd	a2,-128(s0)
    80200f72:	0000a097          	auipc	ra,0xa
    80200f76:	25c080e7          	jalr	604(ra) # 8020b1ce <memset>
    80200f7a:	f7043683          	ld	a3,-144(s0)
    80200f7e:	f7843583          	ld	a1,-136(s0)
    80200f82:	f8043603          	ld	a2,-128(s0)
        Self {
    80200f86:	f8843503          	ld	a0,-120(s0)
    80200f8a:	e114                	sd	a3,0(a0)
    80200f8c:	e514                	sd	a3,8(a0)
    80200f8e:	0541                	addi	a0,a0,16
    80200f90:	0000a097          	auipc	ra,0xa
    80200f94:	246080e7          	jalr	582(ra) # 8020b1d6 <memcpy>
        }
    }
    80200f98:	60aa                	ld	ra,136(sp)
    80200f9a:	640a                	ld	s0,128(sp)
    80200f9c:	6149                	addi	sp,sp,144
    80200f9e:	8082                	ret

0000000080200fa0 <_ZN2os4task7context11TaskContext12goto_restore17heff6d4e9c1c1fb48E>:
    pub fn goto_restore(kstack_ptr: usize) -> Self {
    80200fa0:	7135                	addi	sp,sp,-160
    80200fa2:	ed06                	sd	ra,152(sp)
    80200fa4:	e922                	sd	s0,144(sp)
    80200fa6:	1100                	addi	s0,sp,160
    80200fa8:	f6b43423          	sd	a1,-152(s0)
    80200fac:	f8a43023          	sd	a0,-128(s0)
    80200fb0:	feb43423          	sd	a1,-24(s0)
    80200fb4:	f8840513          	addi	a0,s0,-120
    80200fb8:	f6a43823          	sd	a0,-144(s0)
    80200fbc:	4581                	li	a1,0
    80200fbe:	06000613          	li	a2,96
            fn __restore();
        }
        Self {
            ra: __restore as usize,
            sp: kstack_ptr,
            s: [0; 12],
    80200fc2:	f6c43c23          	sd	a2,-136(s0)
    80200fc6:	0000a097          	auipc	ra,0xa
    80200fca:	208080e7          	jalr	520(ra) # 8020b1ce <memset>
    80200fce:	f6843683          	ld	a3,-152(s0)
    80200fd2:	f7043583          	ld	a1,-144(s0)
    80200fd6:	f7843603          	ld	a2,-136(s0)
        Self {
    80200fda:	f8043503          	ld	a0,-128(s0)

0000000080200fde <.LBB1_1>:
    80200fde:	00003717          	auipc	a4,0x3
    80200fe2:	47a70713          	addi	a4,a4,1146 # 80204458 <__restore>
    80200fe6:	e118                	sd	a4,0(a0)
    80200fe8:	e514                	sd	a3,8(a0)
    80200fea:	0541                	addi	a0,a0,16
    80200fec:	0000a097          	auipc	ra,0xa
    80200ff0:	1ea080e7          	jalr	490(ra) # 8020b1d6 <memcpy>
        }
    }
    80200ff4:	60ea                	ld	ra,152(sp)
    80200ff6:	644a                	ld	s0,144(sp)
    80200ff8:	610d                	addi	sp,sp,160
    80200ffa:	8082                	ret

0000000080200ffc <_ZN2os4task7context11TaskContext2sp17h0be07a442494e3d0E>:

    pub fn sp(&self) -> usize {
    80200ffc:	1101                	addi	sp,sp,-32
    80200ffe:	ec06                	sd	ra,24(sp)
    80201000:	e822                	sd	s0,16(sp)
    80201002:	1000                	addi	s0,sp,32
    80201004:	fea43423          	sd	a0,-24(s0)
        self.sp
    80201008:	6508                	ld	a0,8(a0)
    }
    8020100a:	60e2                	ld	ra,24(sp)
    8020100c:	6442                	ld	s0,16(sp)
    8020100e:	6105                	addi	sp,sp,32
    80201010:	8082                	ret

0000000080201012 <_ZN56_$LT$os..console..Stdout$u20$as$u20$core..fmt..Write$GT$9write_str17h74d086dcb6c02a2eE>:
use core::fmt::{self, Write};

struct Stdout;

impl Write for Stdout {
    fn write_str(&mut self, s: &str) -> fmt::Result {
    80201012:	7119                	addi	sp,sp,-128
    80201014:	fc86                	sd	ra,120(sp)
    80201016:	f8a2                	sd	s0,112(sp)
    80201018:	0100                	addi	s0,sp,128
    8020101a:	f8c43823          	sd	a2,-112(s0)
    8020101e:	862e                	mv	a2,a1
    80201020:	f9043583          	ld	a1,-112(s0)
    80201024:	f8c43c23          	sd	a2,-104(s0)
    80201028:	862a                	mv	a2,a0
    8020102a:	f9843503          	ld	a0,-104(s0)
    8020102e:	fcc43823          	sd	a2,-48(s0)
    80201032:	fca43c23          	sd	a0,-40(s0)
    80201036:	feb43023          	sd	a1,-32(s0)
        for c in s.chars() {
    8020103a:	00002097          	auipc	ra,0x2
    8020103e:	836080e7          	jalr	-1994(ra) # 80202870 <_ZN4core3str21_$LT$impl$u20$str$GT$5chars17hd7dca0339a922b7aE>
    80201042:	faa43023          	sd	a0,-96(s0)
    80201046:	fab43423          	sd	a1,-88(s0)
    8020104a:	a009                	j	8020104c <_ZN56_$LT$os..console..Stdout$u20$as$u20$core..fmt..Write$GT$9write_str17h74d086dcb6c02a2eE+0x3a>
    8020104c:	fa843583          	ld	a1,-88(s0)
    80201050:	fa043503          	ld	a0,-96(s0)
    80201054:	fffff097          	auipc	ra,0xfffff
    80201058:	030080e7          	jalr	48(ra) # 80200084 <_ZN63_$LT$I$u20$as$u20$core..iter..traits..collect..IntoIterator$GT$9into_iter17hc5ac2c60db62f4c2E>
    8020105c:	f8a43023          	sd	a0,-128(s0)
    80201060:	f8b43423          	sd	a1,-120(s0)
    80201064:	a009                	j	80201066 <_ZN56_$LT$os..console..Stdout$u20$as$u20$core..fmt..Write$GT$9write_str17h74d086dcb6c02a2eE+0x54>
    80201066:	f8843503          	ld	a0,-120(s0)
    8020106a:	f8043583          	ld	a1,-128(s0)
    8020106e:	fab43c23          	sd	a1,-72(s0)
    80201072:	fca43023          	sd	a0,-64(s0)
    80201076:	a009                	j	80201078 <_ZN56_$LT$os..console..Stdout$u20$as$u20$core..fmt..Write$GT$9write_str17h74d086dcb6c02a2eE+0x66>
    80201078:	fb840513          	addi	a0,s0,-72
    8020107c:	00001097          	auipc	ra,0x1
    80201080:	560080e7          	jalr	1376(ra) # 802025dc <_ZN81_$LT$core..str..iter..Chars$u20$as$u20$core..iter..traits..iterator..Iterator$GT$4next17h816be0b6a42a2e02E>
    80201084:	1502                	slli	a0,a0,0x20
    80201086:	9101                	srli	a0,a0,0x20
    80201088:	fca42623          	sw	a0,-52(s0)
    8020108c:	a009                	j	8020108e <_ZN56_$LT$os..console..Stdout$u20$as$u20$core..fmt..Write$GT$9write_str17h74d086dcb6c02a2eE+0x7c>
    8020108e:	fcc42503          	lw	a0,-52(s0)
    80201092:	ffef05b7          	lui	a1,0xffef0
    80201096:	9d2d                	addw	a0,a0,a1
    80201098:	00a035b3          	snez	a1,a0
    8020109c:	4581                	li	a1,0
    8020109e:	00b50563          	beq	a0,a1,802010a8 <_ZN56_$LT$os..console..Stdout$u20$as$u20$core..fmt..Write$GT$9write_str17h74d086dcb6c02a2eE+0x96>
    802010a2:	a009                	j	802010a4 <_ZN56_$LT$os..console..Stdout$u20$as$u20$core..fmt..Write$GT$9write_str17h74d086dcb6c02a2eE+0x92>
    802010a4:	a809                	j	802010b6 <_ZN56_$LT$os..console..Stdout$u20$as$u20$core..fmt..Write$GT$9write_str17h74d086dcb6c02a2eE+0xa4>
    802010a6:	0000                	unimp
    802010a8:	4501                	li	a0,0
            console_putchar(c as usize);
        }
        Ok(())
    802010aa:	faa40ba3          	sb	a0,-73(s0)
    }
    802010ae:	70e6                	ld	ra,120(sp)
    802010b0:	7446                	ld	s0,112(sp)
    802010b2:	6109                	addi	sp,sp,128
    802010b4:	8082                	ret
        for c in s.chars() {
    802010b6:	fcc46503          	lwu	a0,-52(s0)
    802010ba:	fea42623          	sw	a0,-20(s0)
            console_putchar(c as usize);
    802010be:	00002097          	auipc	ra,0x2
    802010c2:	e8e080e7          	jalr	-370(ra) # 80202f4c <_ZN2os3sbi15console_putchar17h7be35b4435f4daa8E>
    802010c6:	bf4d                	j	80201078 <_ZN56_$LT$os..console..Stdout$u20$as$u20$core..fmt..Write$GT$9write_str17h74d086dcb6c02a2eE+0x66>

00000000802010c8 <_ZN2os7console5print17h426f04d58d8bc374E>:
}

pub fn print(args: fmt::Arguments) {
    802010c8:	715d                	addi	sp,sp,-80
    Stdout.write_fmt(args).unwrap();
    802010ca:	e486                	sd	ra,72(sp)
    802010cc:	e0a2                	sd	s0,64(sp)
    802010ce:	0880                	addi	s0,sp,80
    802010d0:	750c                	ld	a1,40(a0)
    802010d2:	feb43423          	sd	a1,-24(s0)
    802010d6:	710c                	ld	a1,32(a0)
    802010d8:	feb43023          	sd	a1,-32(s0)
    802010dc:	6d0c                	ld	a1,24(a0)
    802010de:	fcb43c23          	sd	a1,-40(s0)
    802010e2:	690c                	ld	a1,16(a0)
    802010e4:	fcb43823          	sd	a1,-48(s0)
    802010e8:	650c                	ld	a1,8(a0)
    802010ea:	fcb43423          	sd	a1,-56(s0)
    802010ee:	6108                	ld	a0,0(a0)
    802010f0:	fca43023          	sd	a0,-64(s0)
    802010f4:	fb840513          	addi	a0,s0,-72
    802010f8:	fc040593          	addi	a1,s0,-64
    802010fc:	00000097          	auipc	ra,0x0
    80201100:	08e080e7          	jalr	142(ra) # 8020118a <_ZN4core3fmt5Write9write_fmt17hfd8425bec5ddb70cE>
    80201104:	faa43823          	sd	a0,-80(s0)
    80201108:	a009                	j	8020110a <_ZN2os7console5print17h426f04d58d8bc374E+0x42>
    8020110a:	fb043503          	ld	a0,-80(s0)

000000008020110e <.LBB1_3>:
    8020110e:	0000b597          	auipc	a1,0xb
    80201112:	15258593          	addi	a1,a1,338 # 8020c260 <.L__unnamed_1>
    80201116:	00000097          	auipc	ra,0x0
    8020111a:	5e8080e7          	jalr	1512(ra) # 802016fe <_ZN4core6result19Result$LT$T$C$E$GT$6unwrap17h134e1c0f36f5f98fE>
    8020111e:	a009                	j	80201120 <.LBB1_3+0x12>
}
    80201120:	60a6                	ld	ra,72(sp)
    80201122:	6406                	ld	s0,64(sp)
    80201124:	6161                	addi	sp,sp,80
    80201126:	8082                	ret

0000000080201128 <_ZN4core3fmt5Write10write_char17ha1547c972c5ea477E>:
    80201128:	715d                	addi	sp,sp,-80
    8020112a:	e486                	sd	ra,72(sp)
    8020112c:	e0a2                	sd	s0,64(sp)
    8020112e:	0880                	addi	s0,sp,80
    80201130:	fab43c23          	sd	a1,-72(s0)
    80201134:	85aa                	mv	a1,a0
    80201136:	fb843503          	ld	a0,-72(s0)
    8020113a:	fcb43023          	sd	a1,-64(s0)
    8020113e:	feb43023          	sd	a1,-32(s0)
    80201142:	fea42623          	sw	a0,-20(s0)
    80201146:	4581                	li	a1,0
    80201148:	fcb42e23          	sw	a1,-36(s0)
    8020114c:	fdc40593          	addi	a1,s0,-36
    80201150:	4611                	li	a2,4
    80201152:	00002097          	auipc	ra,0x2
    80201156:	92a080e7          	jalr	-1750(ra) # 80202a7c <_ZN4core4char7methods22_$LT$impl$u20$char$GT$11encode_utf817hf70e73917d28ca75E>
    8020115a:	fca43423          	sd	a0,-56(s0)
    8020115e:	fcb43823          	sd	a1,-48(s0)
    80201162:	a009                	j	80201164 <_ZN4core3fmt5Write10write_char17ha1547c972c5ea477E+0x3c>
    80201164:	fd043603          	ld	a2,-48(s0)
    80201168:	fc843583          	ld	a1,-56(s0)
    8020116c:	fc043503          	ld	a0,-64(s0)
    80201170:	00000097          	auipc	ra,0x0
    80201174:	ea2080e7          	jalr	-350(ra) # 80201012 <_ZN56_$LT$os..console..Stdout$u20$as$u20$core..fmt..Write$GT$9write_str17h74d086dcb6c02a2eE>
    80201178:	faa43823          	sd	a0,-80(s0)
    8020117c:	a009                	j	8020117e <_ZN4core3fmt5Write10write_char17ha1547c972c5ea477E+0x56>
    8020117e:	fb043503          	ld	a0,-80(s0)
    80201182:	60a6                	ld	ra,72(sp)
    80201184:	6406                	ld	s0,64(sp)
    80201186:	6161                	addi	sp,sp,80
    80201188:	8082                	ret

000000008020118a <_ZN4core3fmt5Write9write_fmt17hfd8425bec5ddb70cE>:
    8020118a:	715d                	addi	sp,sp,-80
    8020118c:	e486                	sd	ra,72(sp)
    8020118e:	e0a2                	sd	s0,64(sp)
    80201190:	0880                	addi	s0,sp,80
    80201192:	faa43c23          	sd	a0,-72(s0)
    80201196:	6188                	ld	a0,0(a1)
    80201198:	fca43023          	sd	a0,-64(s0)
    8020119c:	6588                	ld	a0,8(a1)
    8020119e:	fca43423          	sd	a0,-56(s0)
    802011a2:	6988                	ld	a0,16(a1)
    802011a4:	fca43823          	sd	a0,-48(s0)
    802011a8:	6d88                	ld	a0,24(a1)
    802011aa:	fca43c23          	sd	a0,-40(s0)
    802011ae:	7188                	ld	a0,32(a1)
    802011b0:	fea43023          	sd	a0,-32(s0)
    802011b4:	7588                	ld	a0,40(a1)
    802011b6:	fea43423          	sd	a0,-24(s0)

00000000802011ba <.LBB1_2>:
    802011ba:	0000b597          	auipc	a1,0xb
    802011be:	0be58593          	addi	a1,a1,190 # 8020c278 <.L__unnamed_1>
    802011c2:	fb840513          	addi	a0,s0,-72
    802011c6:	fc040613          	addi	a2,s0,-64
    802011ca:	00008097          	auipc	ra,0x8
    802011ce:	608080e7          	jalr	1544(ra) # 802097d2 <_ZN4core3fmt5write17h9115c3853837a53dE>
    802011d2:	faa43823          	sd	a0,-80(s0)
    802011d6:	a009                	j	802011d8 <.LBB1_2+0x1e>
    802011d8:	fb043503          	ld	a0,-80(s0)
    802011dc:	60a6                	ld	ra,72(sp)
    802011de:	6406                	ld	s0,64(sp)
    802011e0:	6161                	addi	sp,sp,80
    802011e2:	8082                	ret

00000000802011e4 <_ZN50_$LT$$RF$mut$u20$W$u20$as$u20$core..fmt..Write$GT$9write_str17h3bbec1097845daf0E>:
    802011e4:	7179                	addi	sp,sp,-48
    802011e6:	f406                	sd	ra,40(sp)
    802011e8:	f022                	sd	s0,32(sp)
    802011ea:	1800                	addi	s0,sp,48
    802011ec:	fca43c23          	sd	a0,-40(s0)
    802011f0:	feb43023          	sd	a1,-32(s0)
    802011f4:	fec43423          	sd	a2,-24(s0)
    802011f8:	6108                	ld	a0,0(a0)
    802011fa:	00000097          	auipc	ra,0x0
    802011fe:	e18080e7          	jalr	-488(ra) # 80201012 <_ZN56_$LT$os..console..Stdout$u20$as$u20$core..fmt..Write$GT$9write_str17h74d086dcb6c02a2eE>
    80201202:	fca43823          	sd	a0,-48(s0)
    80201206:	a009                	j	80201208 <_ZN50_$LT$$RF$mut$u20$W$u20$as$u20$core..fmt..Write$GT$9write_str17h3bbec1097845daf0E+0x24>
    80201208:	fd043503          	ld	a0,-48(s0)
    8020120c:	70a2                	ld	ra,40(sp)
    8020120e:	7402                	ld	s0,32(sp)
    80201210:	6145                	addi	sp,sp,48
    80201212:	8082                	ret

0000000080201214 <_ZN50_$LT$$RF$mut$u20$W$u20$as$u20$core..fmt..Write$GT$10write_char17h54c1328f0d83e11aE>:
    80201214:	7179                	addi	sp,sp,-48
    80201216:	f406                	sd	ra,40(sp)
    80201218:	f022                	sd	s0,32(sp)
    8020121a:	1800                	addi	s0,sp,48
    8020121c:	fea43023          	sd	a0,-32(s0)
    80201220:	feb42623          	sw	a1,-20(s0)
    80201224:	6108                	ld	a0,0(a0)
    80201226:	00000097          	auipc	ra,0x0
    8020122a:	f02080e7          	jalr	-254(ra) # 80201128 <_ZN4core3fmt5Write10write_char17ha1547c972c5ea477E>
    8020122e:	fca43c23          	sd	a0,-40(s0)
    80201232:	a009                	j	80201234 <_ZN50_$LT$$RF$mut$u20$W$u20$as$u20$core..fmt..Write$GT$10write_char17h54c1328f0d83e11aE+0x20>
    80201234:	fd843503          	ld	a0,-40(s0)
    80201238:	70a2                	ld	ra,40(sp)
    8020123a:	7402                	ld	s0,32(sp)
    8020123c:	6145                	addi	sp,sp,48
    8020123e:	8082                	ret

0000000080201240 <_ZN50_$LT$$RF$mut$u20$W$u20$as$u20$core..fmt..Write$GT$9write_fmt17hea68445413087ed5E>:
    80201240:	715d                	addi	sp,sp,-80
    80201242:	e486                	sd	ra,72(sp)
    80201244:	e0a2                	sd	s0,64(sp)
    80201246:	0880                	addi	s0,sp,80
    80201248:	fea43423          	sd	a0,-24(s0)
    8020124c:	6108                	ld	a0,0(a0)
    8020124e:	7590                	ld	a2,40(a1)
    80201250:	fec43023          	sd	a2,-32(s0)
    80201254:	7190                	ld	a2,32(a1)
    80201256:	fcc43c23          	sd	a2,-40(s0)
    8020125a:	6d90                	ld	a2,24(a1)
    8020125c:	fcc43823          	sd	a2,-48(s0)
    80201260:	6990                	ld	a2,16(a1)
    80201262:	fcc43423          	sd	a2,-56(s0)
    80201266:	6590                	ld	a2,8(a1)
    80201268:	fcc43023          	sd	a2,-64(s0)
    8020126c:	618c                	ld	a1,0(a1)
    8020126e:	fab43c23          	sd	a1,-72(s0)
    80201272:	fb840593          	addi	a1,s0,-72
    80201276:	00000097          	auipc	ra,0x0
    8020127a:	f14080e7          	jalr	-236(ra) # 8020118a <_ZN4core3fmt5Write9write_fmt17hfd8425bec5ddb70cE>
    8020127e:	faa43823          	sd	a0,-80(s0)
    80201282:	a009                	j	80201284 <_ZN50_$LT$$RF$mut$u20$W$u20$as$u20$core..fmt..Write$GT$9write_fmt17hea68445413087ed5E+0x44>
    80201284:	fb043503          	ld	a0,-80(s0)
    80201288:	60a6                	ld	ra,72(sp)
    8020128a:	6406                	ld	s0,64(sp)
    8020128c:	6161                	addi	sp,sp,80
    8020128e:	8082                	ret

0000000080201290 <_ZN5riscv8register5stvec5write17h776bc8e576967d89E>:
read_csr_as!(Stvec, 0x105, __read_stvec);
write_csr!(0x105, __write_stvec);

/// Writes the CSR
#[inline]
pub unsafe fn write(addr: usize, mode: TrapMode) {
    80201290:	7179                	addi	sp,sp,-48
    80201292:	f406                	sd	ra,40(sp)
    80201294:	f022                	sd	s0,32(sp)
    80201296:	1800                	addi	s0,sp,48
    80201298:	fcb43823          	sd	a1,-48(s0)
    8020129c:	85aa                	mv	a1,a0
    8020129e:	fd043503          	ld	a0,-48(s0)
    802012a2:	feb43023          	sd	a1,-32(s0)
    802012a6:	fea407a3          	sb	a0,-17(s0)
    _write(addr + mode as usize);
    802012aa:	952e                	add	a0,a0,a1
    802012ac:	fca43c23          	sd	a0,-40(s0)
    802012b0:	00b56a63          	bltu	a0,a1,802012c4 <.LBB0_4>
    802012b4:	a009                	j	802012b6 <_ZN5riscv8register5stvec5write17h776bc8e576967d89E+0x26>
    802012b6:	fd843503          	ld	a0,-40(s0)
    802012ba:	00000097          	auipc	ra,0x0
    802012be:	02e080e7          	jalr	46(ra) # 802012e8 <_ZN5riscv8register5stvec6_write17h7b7a42a5cc1b9bd5E>
    802012c2:	a839                	j	802012e0 <.LBB0_5+0x14>

00000000802012c4 <.LBB0_4>:
    802012c4:	0000b517          	auipc	a0,0xb
    802012c8:	05c50513          	addi	a0,a0,92 # 8020c320 <str.0>

00000000802012cc <.LBB0_5>:
    802012cc:	0000b617          	auipc	a2,0xb
    802012d0:	03460613          	addi	a2,a2,52 # 8020c300 <.L__unnamed_1>
    802012d4:	45f1                	li	a1,28
    802012d6:	00008097          	auipc	ra,0x8
    802012da:	cc2080e7          	jalr	-830(ra) # 80208f98 <_ZN4core9panicking5panic17h632812a876026437E>
    802012de:	0000                	unimp
}
    802012e0:	70a2                	ld	ra,40(sp)
    802012e2:	7402                	ld	s0,32(sp)
    802012e4:	6145                	addi	sp,sp,48
    802012e6:	8082                	ret

00000000802012e8 <_ZN5riscv8register5stvec6_write17h7b7a42a5cc1b9bd5E>:
        unsafe fn _write(bits: usize) {
    802012e8:	1101                	addi	sp,sp,-32
    802012ea:	ec06                	sd	ra,24(sp)
    802012ec:	e822                	sd	s0,16(sp)
    802012ee:	1000                	addi	s0,sp,32
    802012f0:	fea43423          	sd	a0,-24(s0)
                () => core::arch::asm!("csrrw x0, {1}, {0}", in(reg) bits, const $csr_number),
    802012f4:	10551073          	csrw	stvec,a0
    802012f8:	a009                	j	802012fa <_ZN5riscv8register5stvec6_write17h7b7a42a5cc1b9bd5E+0x12>
        }
    802012fa:	60e2                	ld	ra,24(sp)
    802012fc:	6442                	ld	s0,16(sp)
    802012fe:	6105                	addi	sp,sp,32
    80201300:	8082                	ret

0000000080201302 <_ZN4core4cell12BorrowRefMut3new17h0e5646f8c56c270cE>:
    80201302:	7139                	addi	sp,sp,-64
    80201304:	fc06                	sd	ra,56(sp)
    80201306:	f822                	sd	s0,48(sp)
    80201308:	0080                	addi	s0,sp,64
    8020130a:	fca43423          	sd	a0,-56(s0)
    8020130e:	fea43423          	sd	a0,-24(s0)
    80201312:	00003097          	auipc	ra,0x3
    80201316:	642080e7          	jalr	1602(ra) # 80204954 <_ZN4core4cell13Cell$LT$T$GT$3get17ha6981e5906d47e55E>
    8020131a:	fca43823          	sd	a0,-48(s0)
    8020131e:	a009                	j	80201320 <_ZN4core4cell12BorrowRefMut3new17h0e5646f8c56c270cE+0x1e>
    80201320:	fd043503          	ld	a0,-48(s0)
    80201324:	4581                	li	a1,0
    80201326:	00b51b63          	bne	a0,a1,8020133c <_ZN4core4cell12BorrowRefMut3new17h0e5646f8c56c270cE+0x3a>
    8020132a:	a009                	j	8020132c <_ZN4core4cell12BorrowRefMut3new17h0e5646f8c56c270cE+0x2a>
    8020132c:	fc843503          	ld	a0,-56(s0)
    80201330:	55fd                	li	a1,-1
    80201332:	00003097          	auipc	ra,0x3
    80201336:	5a8080e7          	jalr	1448(ra) # 802048da <_ZN4core4cell13Cell$LT$T$GT$3set17h2616dcd8ebd3dafcE>
    8020133a:	a819                	j	80201350 <_ZN4core4cell12BorrowRefMut3new17h0e5646f8c56c270cE+0x4e>
    8020133c:	4501                	li	a0,0
    8020133e:	fca43c23          	sd	a0,-40(s0)
    80201342:	a009                	j	80201344 <_ZN4core4cell12BorrowRefMut3new17h0e5646f8c56c270cE+0x42>
    80201344:	fd843503          	ld	a0,-40(s0)
    80201348:	70e2                	ld	ra,56(sp)
    8020134a:	7442                	ld	s0,48(sp)
    8020134c:	6121                	addi	sp,sp,64
    8020134e:	8082                	ret
    80201350:	fc843503          	ld	a0,-56(s0)
    80201354:	fea43023          	sd	a0,-32(s0)
    80201358:	fca43c23          	sd	a0,-40(s0)
    8020135c:	b7e5                	j	80201344 <_ZN4core4cell12BorrowRefMut3new17h0e5646f8c56c270cE+0x42>

000000008020135e <_ZN4core3str11validations15utf8_first_byte17h8241fad75f74c2b9E>:
    8020135e:	1101                	addi	sp,sp,-32
    80201360:	ec06                	sd	ra,24(sp)
    80201362:	e822                	sd	s0,16(sp)
    80201364:	1000                	addi	s0,sp,32
    80201366:	fea405a3          	sb	a0,-21(s0)
    8020136a:	feb42623          	sw	a1,-20(s0)
    8020136e:	0075f613          	andi	a2,a1,7
    80201372:	07f00593          	li	a1,127
    80201376:	00c5d5b3          	srl	a1,a1,a2
    8020137a:	8d6d                	and	a0,a0,a1
    8020137c:	60e2                	ld	ra,24(sp)
    8020137e:	6442                	ld	s0,16(sp)
    80201380:	6105                	addi	sp,sp,32
    80201382:	8082                	ret

0000000080201384 <_ZN4core3str11validations18utf8_acc_cont_byte17h5904d0def233af40E>:
    80201384:	1101                	addi	sp,sp,-32
    80201386:	ec06                	sd	ra,24(sp)
    80201388:	e822                	sd	s0,16(sp)
    8020138a:	1000                	addi	s0,sp,32
    8020138c:	fea42423          	sw	a0,-24(s0)
    80201390:	feb407a3          	sb	a1,-17(s0)
    80201394:	0065151b          	slliw	a0,a0,0x6
    80201398:	03f5f593          	andi	a1,a1,63
    8020139c:	8d4d                	or	a0,a0,a1
    8020139e:	60e2                	ld	ra,24(sp)
    802013a0:	6442                	ld	s0,16(sp)
    802013a2:	6105                	addi	sp,sp,32
    802013a4:	8082                	ret

00000000802013a6 <rust_begin_unwind>:
use crate::sbi::shutdown;
use core::panic::PanicInfo;

#[panic_handler]
fn panic(info: &PanicInfo) -> ! {
    802013a6:	714d                	addi	sp,sp,-336
    802013a8:	e686                	sd	ra,328(sp)
    802013aa:	e2a2                	sd	s0,320(sp)
    802013ac:	0a80                	addi	s0,sp,336
    802013ae:	f0a43423          	sd	a0,-248(s0)
    802013b2:	fea43023          	sd	a0,-32(s0)
    if let Some(location) = info.location() {
    802013b6:	00008097          	auipc	ra,0x8
    802013ba:	bde080e7          	jalr	-1058(ra) # 80208f94 <_ZN4core5panic10panic_info9PanicInfo8location17h10d7e2557dd19be2E>
    802013be:	f0a43823          	sd	a0,-240(s0)
    802013c2:	a009                	j	802013c4 <rust_begin_unwind+0x1e>
    802013c4:	f1043503          	ld	a0,-240(s0)
    802013c8:	4581                	li	a1,0
    802013ca:	02b50263          	beq	a0,a1,802013ee <rust_begin_unwind+0x48>
    802013ce:	a009                	j	802013d0 <rust_begin_unwind+0x2a>
    802013d0:	f1043503          	ld	a0,-240(s0)
    802013d4:	f0a43023          	sd	a0,-256(s0)
    802013d8:	fea43423          	sd	a0,-24(s0)
        println!(
            "Panicked at {}:{} {}",
            location.file(),
    802013dc:	00008097          	auipc	ra,0x8
    802013e0:	ba8080e7          	jalr	-1112(ra) # 80208f84 <_ZN4core5panic8location8Location4file17h3218cd9c0413fa29E>
    802013e4:	f6a43c23          	sd	a0,-136(s0)
    802013e8:	f8b43023          	sd	a1,-128(s0)
    802013ec:	a069                	j	80201476 <.LBB0_18+0x36>
            location.line(),
            info.message().unwrap()
        );
    } else {
        println!("[kernel] Panicked: {}", info.message().unwrap());
    802013ee:	f0843503          	ld	a0,-248(s0)
    802013f2:	00008097          	auipc	ra,0x8
    802013f6:	b9e080e7          	jalr	-1122(ra) # 80208f90 <_ZN4core5panic10panic_info9PanicInfo7message17h61027989da2ad56dE>
    802013fa:	eea43c23          	sd	a0,-264(s0)
    802013fe:	a009                	j	80201400 <rust_begin_unwind+0x5a>
    80201400:	ef843503          	ld	a0,-264(s0)

0000000080201404 <.LBB0_17>:
    80201404:	0000b597          	auipc	a1,0xb
    80201408:	f8458593          	addi	a1,a1,-124 # 8020c388 <.L__unnamed_1>
    8020140c:	00002097          	auipc	ra,0x2
    80201410:	7ce080e7          	jalr	1998(ra) # 80203bda <_ZN4core6option15Option$LT$T$GT$6unwrap17h5d7defa297e289f9E>
    80201414:	fca43c23          	sd	a0,-40(s0)
    80201418:	a009                	j	8020141a <.LBB0_17+0x16>
    8020141a:	fd840513          	addi	a0,s0,-40
    8020141e:	00002097          	auipc	ra,0x2
    80201422:	464080e7          	jalr	1124(ra) # 80203882 <_ZN4core3fmt10ArgumentV111new_display17h58964a223776af9bE>
    80201426:	eea43423          	sd	a0,-280(s0)
    8020142a:	eeb43823          	sd	a1,-272(s0)
    8020142e:	a009                	j	80201430 <.LBB0_17+0x2c>
    80201430:	ef043503          	ld	a0,-272(s0)
    80201434:	ee843583          	ld	a1,-280(s0)
    80201438:	fcb43423          	sd	a1,-56(s0)
    8020143c:	fca43823          	sd	a0,-48(s0)

0000000080201440 <.LBB0_18>:
    80201440:	0000b597          	auipc	a1,0xb
    80201444:	f1058593          	addi	a1,a1,-240 # 8020c350 <.L__unnamed_2>
    80201448:	f9840513          	addi	a0,s0,-104
    8020144c:	4609                	li	a2,2
    8020144e:	fc840693          	addi	a3,s0,-56
    80201452:	4705                	li	a4,1
    80201454:	00003097          	auipc	ra,0x3
    80201458:	710080e7          	jalr	1808(ra) # 80204b64 <_ZN4core3fmt9Arguments6new_v117h9d5aba721c4dc286E>
    8020145c:	a009                	j	8020145e <.LBB0_18+0x1e>
    8020145e:	f9840513          	addi	a0,s0,-104
    80201462:	00000097          	auipc	ra,0x0
    80201466:	c66080e7          	jalr	-922(ra) # 802010c8 <_ZN2os7console5print17h426f04d58d8bc374E>
    8020146a:	a009                	j	8020146c <.LBB0_18+0x2c>
    }
    shutdown()
    8020146c:	00002097          	auipc	ra,0x2
    80201470:	b14080e7          	jalr	-1260(ra) # 80202f80 <_ZN2os3sbi8shutdown17ha0e0e9d94172fb0dE>
    80201474:	0000                	unimp
    80201476:	f7840513          	addi	a0,s0,-136
        println!(
    8020147a:	00007097          	auipc	ra,0x7
    8020147e:	6dc080e7          	jalr	1756(ra) # 80208b56 <_ZN4core3fmt10ArgumentV111new_display17h9745d3642a8592a8E>
    80201482:	eca43c23          	sd	a0,-296(s0)
    80201486:	eeb43023          	sd	a1,-288(s0)
    8020148a:	a009                	j	8020148c <.LBB0_18+0x4c>
            location.line(),
    8020148c:	f0043503          	ld	a0,-256(s0)
    80201490:	00008097          	auipc	ra,0x8
    80201494:	afc080e7          	jalr	-1284(ra) # 80208f8c <_ZN4core5panic8location8Location4line17h105d42c79c891f98E>
    80201498:	f8a42623          	sw	a0,-116(s0)
    8020149c:	a009                	j	8020149e <.LBB0_18+0x5e>
    8020149e:	f8c40513          	addi	a0,s0,-116
        println!(
    802014a2:	00002097          	auipc	ra,0x2
    802014a6:	416080e7          	jalr	1046(ra) # 802038b8 <_ZN4core3fmt10ArgumentV111new_display17ha34553a6f2933976E>
    802014aa:	eca43423          	sd	a0,-312(s0)
    802014ae:	ecb43823          	sd	a1,-304(s0)
    802014b2:	a009                	j	802014b4 <.LBB0_18+0x74>
            info.message().unwrap()
    802014b4:	f0843503          	ld	a0,-248(s0)
    802014b8:	00008097          	auipc	ra,0x8
    802014bc:	ad8080e7          	jalr	-1320(ra) # 80208f90 <_ZN4core5panic10panic_info9PanicInfo7message17h61027989da2ad56dE>
    802014c0:	eca43023          	sd	a0,-320(s0)
    802014c4:	a009                	j	802014c6 <.LBB0_18+0x86>
    802014c6:	ec043503          	ld	a0,-320(s0)

00000000802014ca <.LBB0_19>:
    802014ca:	0000b597          	auipc	a1,0xb
    802014ce:	f2658593          	addi	a1,a1,-218 # 8020c3f0 <.L__unnamed_3>
    802014d2:	00002097          	auipc	ra,0x2
    802014d6:	708080e7          	jalr	1800(ra) # 80203bda <_ZN4core6option15Option$LT$T$GT$6unwrap17h5d7defa297e289f9E>
    802014da:	f8a43823          	sd	a0,-112(s0)
    802014de:	a009                	j	802014e0 <.LBB0_19+0x16>
    802014e0:	f9040513          	addi	a0,s0,-112
        println!(
    802014e4:	00002097          	auipc	ra,0x2
    802014e8:	39e080e7          	jalr	926(ra) # 80203882 <_ZN4core3fmt10ArgumentV111new_display17h58964a223776af9bE>
    802014ec:	eaa43823          	sd	a0,-336(s0)
    802014f0:	eab43c23          	sd	a1,-328(s0)
    802014f4:	a009                	j	802014f6 <.LBB0_19+0x2c>
    802014f6:	eb843503          	ld	a0,-328(s0)
    802014fa:	eb043583          	ld	a1,-336(s0)
    802014fe:	ed043603          	ld	a2,-304(s0)
    80201502:	ec843683          	ld	a3,-312(s0)
    80201506:	ee043703          	ld	a4,-288(s0)
    8020150a:	ed843783          	ld	a5,-296(s0)
    8020150e:	f4f43423          	sd	a5,-184(s0)
    80201512:	f4e43823          	sd	a4,-176(s0)
    80201516:	f4d43c23          	sd	a3,-168(s0)
    8020151a:	f6c43023          	sd	a2,-160(s0)
    8020151e:	f6b43423          	sd	a1,-152(s0)
    80201522:	f6a43823          	sd	a0,-144(s0)

0000000080201526 <.LBB0_20>:
    80201526:	0000b597          	auipc	a1,0xb
    8020152a:	e8a58593          	addi	a1,a1,-374 # 8020c3b0 <.L__unnamed_4>
    8020152e:	f1840513          	addi	a0,s0,-232
    80201532:	4611                	li	a2,4
    80201534:	f4840693          	addi	a3,s0,-184
    80201538:	470d                	li	a4,3
    8020153a:	00003097          	auipc	ra,0x3
    8020153e:	62a080e7          	jalr	1578(ra) # 80204b64 <_ZN4core3fmt9Arguments6new_v117h9d5aba721c4dc286E>
    80201542:	a009                	j	80201544 <.LBB0_20+0x1e>
    80201544:	f1840513          	addi	a0,s0,-232
    80201548:	00000097          	auipc	ra,0x0
    8020154c:	b80080e7          	jalr	-1152(ra) # 802010c8 <_ZN2os7console5print17h426f04d58d8bc374E>
    80201550:	bf31                	j	8020146c <.LBB0_18+0x2c>

0000000080201552 <_ZN4core3mem7replace17h3a3a553db15f29d7E>:
    80201552:	7139                	addi	sp,sp,-64
    80201554:	fc06                	sd	ra,56(sp)
    80201556:	f822                	sd	s0,48(sp)
    80201558:	0080                	addi	s0,sp,64
    8020155a:	fcb43023          	sd	a1,-64(s0)
    8020155e:	fca43423          	sd	a0,-56(s0)
    80201562:	fca43c23          	sd	a0,-40(s0)
    80201566:	feb43023          	sd	a1,-32(s0)
    8020156a:	fffff097          	auipc	ra,0xfffff
    8020156e:	e5a080e7          	jalr	-422(ra) # 802003c4 <_ZN4core3ptr4read17h810dcd8c8528c60fE>
    80201572:	85aa                	mv	a1,a0
    80201574:	fcb43823          	sd	a1,-48(s0)
    80201578:	fea43423          	sd	a0,-24(s0)
    8020157c:	a009                	j	8020157e <_ZN4core3mem7replace17h3a3a553db15f29d7E+0x2c>
    8020157e:	fc043583          	ld	a1,-64(s0)
    80201582:	fc843503          	ld	a0,-56(s0)
    80201586:	fffff097          	auipc	ra,0xfffff
    8020158a:	e86080e7          	jalr	-378(ra) # 8020040c <_ZN4core3ptr5write17h5694487ee064fef4E>
    8020158e:	a009                	j	80201590 <_ZN4core3mem7replace17h3a3a553db15f29d7E+0x3e>
    80201590:	fd043503          	ld	a0,-48(s0)
    80201594:	70e2                	ld	ra,56(sp)
    80201596:	7442                	ld	s0,48(sp)
    80201598:	6121                	addi	sp,sp,64
    8020159a:	8082                	ret

000000008020159c <_ZN4core3mem4drop17h7254c1021654c95aE>:
    8020159c:	1101                	addi	sp,sp,-32
    8020159e:	ec06                	sd	ra,24(sp)
    802015a0:	e822                	sd	s0,16(sp)
    802015a2:	1000                	addi	s0,sp,32
    802015a4:	fea43423          	sd	a0,-24(s0)
    802015a8:	a009                	j	802015aa <_ZN4core3mem4drop17h7254c1021654c95aE+0xe>
    802015aa:	60e2                	ld	ra,24(sp)
    802015ac:	6442                	ld	s0,16(sp)
    802015ae:	6105                	addi	sp,sp,32
    802015b0:	8082                	ret

00000000802015b2 <_ZN4core3mem4drop17hf6811e1c8f2431c2E>:
    802015b2:	1101                	addi	sp,sp,-32
    802015b4:	ec06                	sd	ra,24(sp)
    802015b6:	e822                	sd	s0,16(sp)
    802015b8:	1000                	addi	s0,sp,32
    802015ba:	fea43023          	sd	a0,-32(s0)
    802015be:	feb43423          	sd	a1,-24(s0)
    802015c2:	fe040513          	addi	a0,s0,-32
    802015c6:	00000097          	auipc	ra,0x0
    802015ca:	82e080e7          	jalr	-2002(ra) # 80200df4 <_ZN4core3ptr73drop_in_place$LT$core..cell..RefMut$LT$os..task..TaskManagerInner$GT$$GT$17hec470914bda558b9E>
    802015ce:	a009                	j	802015d0 <_ZN4core3mem4drop17hf6811e1c8f2431c2E+0x1e>
    802015d0:	60e2                	ld	ra,24(sp)
    802015d2:	6442                	ld	s0,16(sp)
    802015d4:	6105                	addi	sp,sp,32
    802015d6:	8082                	ret

00000000802015d8 <_ZN2os4trap7context11TrapContext6set_sp17h4237769c52777499E>:
    pub sstatus: Sstatus,
    pub sepc: usize,
}

impl TrapContext {
    pub fn set_sp(&mut self, sp: usize) {
    802015d8:	1101                	addi	sp,sp,-32
    802015da:	ec06                	sd	ra,24(sp)
    802015dc:	e822                	sd	s0,16(sp)
    802015de:	1000                	addi	s0,sp,32
    802015e0:	fea43023          	sd	a0,-32(s0)
    802015e4:	feb43423          	sd	a1,-24(s0)
        self.x[2] = sp;
    802015e8:	e90c                	sd	a1,16(a0)
    }
    802015ea:	60e2                	ld	ra,24(sp)
    802015ec:	6442                	ld	s0,16(sp)
    802015ee:	6105                	addi	sp,sp,32
    802015f0:	8082                	ret

00000000802015f2 <_ZN2os4trap7context11TrapContext16app_init_context17h95739774f65c18d5E>:
    pub fn app_init_context(entry: usize, sp: usize) -> Self {
    802015f2:	710d                	addi	sp,sp,-352
        let mut sstatus = sstatus::read();
        sstatus.set_spp(SPP::User);
        let mut cx = Self {
    802015f4:	ee86                	sd	ra,344(sp)
    802015f6:	eaa2                	sd	s0,336(sp)
    802015f8:	1280                	addi	s0,sp,352
    802015fa:	eac43c23          	sd	a2,-328(s0)
    802015fe:	ecb43023          	sd	a1,-320(s0)
    80201602:	eca43423          	sd	a0,-312(s0)
    80201606:	feb43023          	sd	a1,-32(s0)
    8020160a:	fec43423          	sd	a2,-24(s0)
        let mut sstatus = sstatus::read();
    8020160e:	00002097          	auipc	ra,0x2
    80201612:	a44080e7          	jalr	-1468(ra) # 80203052 <_ZN5riscv8register7sstatus4read17h0a5f7547e0a9d9a7E>
    80201616:	eca43823          	sd	a0,-304(s0)
    8020161a:	a009                	j	8020161c <_ZN2os4trap7context11TrapContext16app_init_context17h95739774f65c18d5E+0x2a>
    8020161c:	4581                	li	a1,0
        sstatus.set_spp(SPP::User);
    8020161e:	ecb40fa3          	sb	a1,-289(s0)
    80201622:	ed040513          	addi	a0,s0,-304
    80201626:	00002097          	auipc	ra,0x2
    8020162a:	9a0080e7          	jalr	-1632(ra) # 80202fc6 <_ZN5riscv8register7sstatus7Sstatus7set_spp17hde473406c6d8d866E>
    8020162e:	a009                	j	80201630 <_ZN2os4trap7context11TrapContext16app_init_context17h95739774f65c18d5E+0x3e>
    80201630:	ee040513          	addi	a0,s0,-288
    80201634:	eaa43023          	sd	a0,-352(s0)
    80201638:	4581                	li	a1,0
    8020163a:	10000613          	li	a2,256
            x: [0; 32],
    8020163e:	eac43423          	sd	a2,-344(s0)
    80201642:	0000a097          	auipc	ra,0xa
    80201646:	b8c080e7          	jalr	-1140(ra) # 8020b1ce <memset>
    8020164a:	ea043583          	ld	a1,-352(s0)
    8020164e:	ea843603          	ld	a2,-344(s0)
            sstatus,
    80201652:	ec843503          	ld	a0,-312(s0)
    80201656:	ed043683          	ld	a3,-304(s0)
        let mut cx = Self {
    8020165a:	ead43823          	sd	a3,-336(s0)
    8020165e:	0000a097          	auipc	ra,0xa
    80201662:	b78080e7          	jalr	-1160(ra) # 8020b1d6 <memcpy>
    80201666:	eb043683          	ld	a3,-336(s0)
    8020166a:	ec043603          	ld	a2,-320(s0)
    8020166e:	eb843583          	ld	a1,-328(s0)
    80201672:	ec843503          	ld	a0,-312(s0)
    80201676:	10d53023          	sd	a3,256(a0)
    8020167a:	10c53423          	sd	a2,264(a0)
            sepc: entry,
        };
        cx.set_sp(sp);
    8020167e:	00000097          	auipc	ra,0x0
    80201682:	f5a080e7          	jalr	-166(ra) # 802015d8 <_ZN2os4trap7context11TrapContext6set_sp17h4237769c52777499E>
    80201686:	a009                	j	80201688 <_ZN2os4trap7context11TrapContext16app_init_context17h95739774f65c18d5E+0x96>
        cx
    }
    80201688:	60f6                	ld	ra,344(sp)
    8020168a:	6456                	ld	s0,336(sp)
    8020168c:	6135                	addi	sp,sp,352
    8020168e:	8082                	ret

0000000080201690 <_ZN4core6result19Result$LT$T$C$E$GT$6expect17hdf691a437fc1e870E>:
    80201690:	711d                	addi	sp,sp,-96
    80201692:	ec86                	sd	ra,88(sp)
    80201694:	e8a2                	sd	s0,80(sp)
    80201696:	1080                	addi	s0,sp,96
    80201698:	fae43023          	sd	a4,-96(s0)
    8020169c:	fad43423          	sd	a3,-88(s0)
    802016a0:	fac43823          	sd	a2,-80(s0)
    802016a4:	faa43c23          	sd	a0,-72(s0)
    802016a8:	fcb43023          	sd	a1,-64(s0)
    802016ac:	fcc43823          	sd	a2,-48(s0)
    802016b0:	fcd43c23          	sd	a3,-40(s0)
    802016b4:	00153593          	seqz	a1,a0
    802016b8:	4581                	li	a1,0
    802016ba:	00b51563          	bne	a0,a1,802016c4 <_ZN4core6result19Result$LT$T$C$E$GT$6expect17hdf691a437fc1e870E+0x34>
    802016be:	a009                	j	802016c0 <_ZN4core6result19Result$LT$T$C$E$GT$6expect17hdf691a437fc1e870E+0x30>
    802016c0:	a831                	j	802016dc <_ZN4core6result19Result$LT$T$C$E$GT$6expect17hdf691a437fc1e870E+0x4c>
    802016c2:	0000                	unimp
    802016c4:	fb843503          	ld	a0,-72(s0)
    802016c8:	fc043583          	ld	a1,-64(s0)
    802016cc:	fea43023          	sd	a0,-32(s0)
    802016d0:	feb43423          	sd	a1,-24(s0)
    802016d4:	60e6                	ld	ra,88(sp)
    802016d6:	6446                	ld	s0,80(sp)
    802016d8:	6125                	addi	sp,sp,96
    802016da:	8082                	ret
    802016dc:	fa043703          	ld	a4,-96(s0)
    802016e0:	fa843583          	ld	a1,-88(s0)
    802016e4:	fb043503          	ld	a0,-80(s0)

00000000802016e8 <.LBB0_5>:
    802016e8:	0000b697          	auipc	a3,0xb
    802016ec:	d2068693          	addi	a3,a3,-736 # 8020c408 <.L__unnamed_1>
    802016f0:	fc840613          	addi	a2,s0,-56
    802016f4:	00008097          	auipc	ra,0x8
    802016f8:	93e080e7          	jalr	-1730(ra) # 80209032 <_ZN4core6result13unwrap_failed17h8765cb0d3fc36941E>
	...

00000000802016fe <_ZN4core6result19Result$LT$T$C$E$GT$6unwrap17h134e1c0f36f5f98fE>:
    802016fe:	7179                	addi	sp,sp,-48
    80201700:	f406                	sd	ra,40(sp)
    80201702:	f022                	sd	s0,32(sp)
    80201704:	1800                	addi	s0,sp,48
    80201706:	fcb43823          	sd	a1,-48(s0)
    8020170a:	fca40fa3          	sb	a0,-33(s0)
    8020170e:	4581                	li	a1,0
    80201710:	00b50563          	beq	a0,a1,8020171a <_ZN4core6result19Result$LT$T$C$E$GT$6unwrap17h134e1c0f36f5f98fE+0x1c>
    80201714:	a009                	j	80201716 <_ZN4core6result19Result$LT$T$C$E$GT$6unwrap17h134e1c0f36f5f98fE+0x18>
    80201716:	a031                	j	80201722 <_ZN4core6result19Result$LT$T$C$E$GT$6unwrap17h134e1c0f36f5f98fE+0x24>
    80201718:	0000                	unimp
    8020171a:	70a2                	ld	ra,40(sp)
    8020171c:	7402                	ld	s0,32(sp)
    8020171e:	6145                	addi	sp,sp,48
    80201720:	8082                	ret
    80201722:	fd043703          	ld	a4,-48(s0)

0000000080201726 <.LBB1_5>:
    80201726:	0000b517          	auipc	a0,0xb
    8020172a:	d0250513          	addi	a0,a0,-766 # 8020c428 <.L__unnamed_5>

000000008020172e <.LBB1_6>:
    8020172e:	0000b697          	auipc	a3,0xb
    80201732:	d2a68693          	addi	a3,a3,-726 # 8020c458 <.L__unnamed_2>
    80201736:	02b00593          	li	a1,43
    8020173a:	fe040613          	addi	a2,s0,-32
    8020173e:	00008097          	auipc	ra,0x8
    80201742:	8f4080e7          	jalr	-1804(ra) # 80209032 <_ZN4core6result13unwrap_failed17h8765cb0d3fc36941E>
	...

0000000080201748 <_ZN4core6result19Result$LT$T$C$E$GT$6unwrap17h4314e87422285ac1E>:
    80201748:	7139                	addi	sp,sp,-64
    8020174a:	fc06                	sd	ra,56(sp)
    8020174c:	f822                	sd	s0,48(sp)
    8020174e:	0080                	addi	s0,sp,64
    80201750:	fcb43023          	sd	a1,-64(s0)
    80201754:	fca43423          	sd	a0,-56(s0)
    80201758:	6108                	ld	a0,0(a0)
    8020175a:	4581                	li	a1,0
    8020175c:	00b50563          	beq	a0,a1,80201766 <_ZN4core6result19Result$LT$T$C$E$GT$6unwrap17h4314e87422285ac1E+0x1e>
    80201760:	a009                	j	80201762 <_ZN4core6result19Result$LT$T$C$E$GT$6unwrap17h4314e87422285ac1E+0x1a>
    80201762:	a831                	j	8020177e <_ZN4core6result19Result$LT$T$C$E$GT$6unwrap17h4314e87422285ac1E+0x36>
    80201764:	0000                	unimp
    80201766:	fc843583          	ld	a1,-56(s0)
    8020176a:	6588                	ld	a0,8(a1)
    8020176c:	698c                	ld	a1,16(a1)
    8020176e:	fea43023          	sd	a0,-32(s0)
    80201772:	feb43423          	sd	a1,-24(s0)
    80201776:	70e2                	ld	ra,56(sp)
    80201778:	7442                	ld	s0,48(sp)
    8020177a:	6121                	addi	sp,sp,64
    8020177c:	8082                	ret
    8020177e:	fc043703          	ld	a4,-64(s0)
    80201782:	fc843503          	ld	a0,-56(s0)
    80201786:	690c                	ld	a1,16(a0)
    80201788:	fcb43c23          	sd	a1,-40(s0)
    8020178c:	6508                	ld	a0,8(a0)
    8020178e:	fca43823          	sd	a0,-48(s0)

0000000080201792 <.LBB2_5>:
    80201792:	0000b517          	auipc	a0,0xb
    80201796:	c9650513          	addi	a0,a0,-874 # 8020c428 <.L__unnamed_5>

000000008020179a <.LBB2_6>:
    8020179a:	0000b697          	auipc	a3,0xb
    8020179e:	cde68693          	addi	a3,a3,-802 # 8020c478 <.L__unnamed_3>
    802017a2:	02b00593          	li	a1,43
    802017a6:	fd040613          	addi	a2,s0,-48
    802017aa:	00008097          	auipc	ra,0x8
    802017ae:	888080e7          	jalr	-1912(ra) # 80209032 <_ZN4core6result13unwrap_failed17h8765cb0d3fc36941E>
	...

00000000802017b4 <_ZN4core6result19Result$LT$T$C$E$GT$6unwrap17hfca86c5290722f98E>:
    802017b4:	7179                	addi	sp,sp,-48
    802017b6:	f406                	sd	ra,40(sp)
    802017b8:	f022                	sd	s0,32(sp)
    802017ba:	1800                	addi	s0,sp,48
    802017bc:	fcb43823          	sd	a1,-48(s0)
    802017c0:	fca40fa3          	sb	a0,-33(s0)
    802017c4:	4581                	li	a1,0
    802017c6:	00b50563          	beq	a0,a1,802017d0 <_ZN4core6result19Result$LT$T$C$E$GT$6unwrap17hfca86c5290722f98E+0x1c>
    802017ca:	a009                	j	802017cc <_ZN4core6result19Result$LT$T$C$E$GT$6unwrap17hfca86c5290722f98E+0x18>
    802017cc:	a031                	j	802017d8 <_ZN4core6result19Result$LT$T$C$E$GT$6unwrap17hfca86c5290722f98E+0x24>
    802017ce:	0000                	unimp
    802017d0:	70a2                	ld	ra,40(sp)
    802017d2:	7402                	ld	s0,32(sp)
    802017d4:	6145                	addi	sp,sp,48
    802017d6:	8082                	ret
    802017d8:	fd043703          	ld	a4,-48(s0)

00000000802017dc <.LBB3_5>:
    802017dc:	0000b517          	auipc	a0,0xb
    802017e0:	c4c50513          	addi	a0,a0,-948 # 8020c428 <.L__unnamed_5>

00000000802017e4 <.LBB3_6>:
    802017e4:	0000b697          	auipc	a3,0xb
    802017e8:	cb468693          	addi	a3,a3,-844 # 8020c498 <.L__unnamed_4>
    802017ec:	02b00593          	li	a1,43
    802017f0:	fe040613          	addi	a2,s0,-32
    802017f4:	00008097          	auipc	ra,0x8
    802017f8:	83e080e7          	jalr	-1986(ra) # 80209032 <_ZN4core6result13unwrap_failed17h8765cb0d3fc36941E>
	...

00000000802017fe <_ZN2os4task11TaskManager14run_first_task17h596660c3eb337f0aE>:
        }
    };
}

impl TaskManager {
    fn run_first_task(&self) -> ! {
    802017fe:	7131                	addi	sp,sp,-192
    80201800:	fd06                	sd	ra,184(sp)
    80201802:	f922                	sd	s0,176(sp)
    80201804:	0180                	addi	s0,sp,192
    80201806:	fca43c23          	sd	a0,-40(s0)
        let mut inner = self.inner.exclusive_access();
    8020180a:	0521                	addi	a0,a0,8
    8020180c:	00001097          	auipc	ra,0x1
    80201810:	9d4080e7          	jalr	-1580(ra) # 802021e0 <_ZN2os4sync2up19UPSafeCell$LT$T$GT$16exclusive_access17hcfbac3cf0a65e139E>
    80201814:	f4a43823          	sd	a0,-176(s0)
    80201818:	f4b43c23          	sd	a1,-168(s0)
    8020181c:	a009                	j	8020181e <_ZN2os4task11TaskManager14run_first_task17h596660c3eb337f0aE+0x20>
    8020181e:	f5040513          	addi	a0,s0,-176
        let task0 = &mut inner.tasks[0];
    80201822:	00003097          	auipc	ra,0x3
    80201826:	32c080e7          	jalr	812(ra) # 80204b4e <_ZN74_$LT$core..cell..RefMut$LT$T$GT$$u20$as$u20$core..ops..deref..DerefMut$GT$9deref_mut17h9e7828085cb065acE>
    8020182a:	f4a43423          	sd	a0,-184(s0)
    8020182e:	a009                	j	80201830 <_ZN2os4task11TaskManager14run_first_task17h596660c3eb337f0aE+0x32>
    80201830:	f4843503          	ld	a0,-184(s0)
    80201834:	fea43023          	sd	a0,-32(s0)
    80201838:	4589                	li	a1,2
        task0.task_status = TaskStatus::Running;
    8020183a:	f6b403a3          	sb	a1,-153(s0)
    8020183e:	06b50823          	sb	a1,112(a0)
        let next_task_cx_ptr = &task0.task_cx as *const TaskContext;
    80201842:	85aa                	mv	a1,a0
    80201844:	f4b43023          	sd	a1,-192(s0)
    80201848:	fea43423          	sd	a0,-24(s0)
        drop(inner);
    8020184c:	f5043503          	ld	a0,-176(s0)
    80201850:	f5843583          	ld	a1,-168(s0)
    80201854:	00000097          	auipc	ra,0x0
    80201858:	d5e080e7          	jalr	-674(ra) # 802015b2 <_ZN4core3mem4drop17hf6811e1c8f2431c2E>
    8020185c:	a009                	j	8020185e <_ZN2os4task11TaskManager14run_first_task17h596660c3eb337f0aE+0x60>
    8020185e:	f6840513          	addi	a0,s0,-152
        let mut _unused = TaskContext::zero_init();
    80201862:	fffff097          	auipc	ra,0xfffff
    80201866:	6ee080e7          	jalr	1774(ra) # 80200f50 <_ZN2os4task7context11TaskContext9zero_init17h56bde241bc7ae4a2E>
    8020186a:	a009                	j	8020186c <_ZN2os4task11TaskManager14run_first_task17h596660c3eb337f0aE+0x6e>
        // before this, we should drop local variables that must be dropped manually
        unsafe {
            __switch(&mut _unused as *mut TaskContext, next_task_cx_ptr);
    8020186c:	f4043583          	ld	a1,-192(s0)
    80201870:	f6840513          	addi	a0,s0,-152
    80201874:	00003097          	auipc	ra,0x3
    80201878:	400080e7          	jalr	1024(ra) # 80204c74 <__switch>
    8020187c:	a009                	j	8020187e <.LBB0_6>

000000008020187e <.LBB0_6>:
        }
        panic!("unreachable in run_first_task!");
    8020187e:	0000b517          	auipc	a0,0xb
    80201882:	c3a50513          	addi	a0,a0,-966 # 8020c4b8 <.L__unnamed_1>

0000000080201886 <.LBB0_7>:
    80201886:	0000b617          	auipc	a2,0xb
    8020188a:	c6260613          	addi	a2,a2,-926 # 8020c4e8 <.L__unnamed_2>
    8020188e:	45f9                	li	a1,30
    80201890:	00007097          	auipc	ra,0x7
    80201894:	708080e7          	jalr	1800(ra) # 80208f98 <_ZN4core9panicking5panic17h632812a876026437E>
	...

000000008020189a <_ZN2os4task11TaskManager22mark_current_suspended17h1167667e12a476c0E>:
    }

    fn mark_current_suspended(&self) {
    8020189a:	715d                	addi	sp,sp,-80
    8020189c:	e486                	sd	ra,72(sp)
    8020189e:	e0a2                	sd	s0,64(sp)
    802018a0:	0880                	addi	s0,sp,80
    802018a2:	fea43023          	sd	a0,-32(s0)
        let mut inner = self.inner.exclusive_access();
    802018a6:	0521                	addi	a0,a0,8
    802018a8:	00001097          	auipc	ra,0x1
    802018ac:	938080e7          	jalr	-1736(ra) # 802021e0 <_ZN2os4sync2up19UPSafeCell$LT$T$GT$16exclusive_access17hcfbac3cf0a65e139E>
    802018b0:	fca43423          	sd	a0,-56(s0)
    802018b4:	fcb43823          	sd	a1,-48(s0)
    802018b8:	a009                	j	802018ba <_ZN2os4task11TaskManager22mark_current_suspended17h1167667e12a476c0E+0x20>
    802018ba:	fc840513          	addi	a0,s0,-56
        let current = inner.current_task;
    802018be:	00003097          	auipc	ra,0x3
    802018c2:	27a080e7          	jalr	634(ra) # 80204b38 <_ZN71_$LT$core..cell..RefMut$LT$T$GT$$u20$as$u20$core..ops..deref..Deref$GT$5deref17h3827bf300770e2d0E>
    802018c6:	fca43023          	sd	a0,-64(s0)
    802018ca:	a009                	j	802018cc <_ZN2os4task11TaskManager22mark_current_suspended17h1167667e12a476c0E+0x32>
    802018cc:	fc043503          	ld	a0,-64(s0)
    802018d0:	3c053503          	ld	a0,960(a0)
    802018d4:	faa43823          	sd	a0,-80(s0)
    802018d8:	fea43423          	sd	a0,-24(s0)
    802018dc:	4505                	li	a0,1
        inner.tasks[current].task_status = TaskStatus::Ready;
    802018de:	fca40fa3          	sb	a0,-33(s0)
    802018e2:	fc840513          	addi	a0,s0,-56
    802018e6:	00003097          	auipc	ra,0x3
    802018ea:	268080e7          	jalr	616(ra) # 80204b4e <_ZN74_$LT$core..cell..RefMut$LT$T$GT$$u20$as$u20$core..ops..deref..DerefMut$GT$9deref_mut17h9e7828085cb065acE>
    802018ee:	faa43c23          	sd	a0,-72(s0)
    802018f2:	a009                	j	802018f4 <_ZN2os4task11TaskManager22mark_current_suspended17h1167667e12a476c0E+0x5a>
    802018f4:	fb043583          	ld	a1,-80(s0)
    802018f8:	451d                	li	a0,7
    802018fa:	02b56763          	bltu	a0,a1,80201928 <_ZN2os4task11TaskManager22mark_current_suspended17h1167667e12a476c0E+0x8e>
    802018fe:	a009                	j	80201900 <_ZN2os4task11TaskManager22mark_current_suspended17h1167667e12a476c0E+0x66>
    80201900:	fb843503          	ld	a0,-72(s0)
    80201904:	fb043583          	ld	a1,-80(s0)
    80201908:	07800613          	li	a2,120
    8020190c:	02c585b3          	mul	a1,a1,a2
    80201910:	95aa                	add	a1,a1,a0
    80201912:	fdf40503          	lb	a0,-33(s0)
    80201916:	06a58823          	sb	a0,112(a1)
    8020191a:	fc840513          	addi	a0,s0,-56
    }
    8020191e:	fffff097          	auipc	ra,0xfffff
    80201922:	4d6080e7          	jalr	1238(ra) # 80200df4 <_ZN4core3ptr73drop_in_place$LT$core..cell..RefMut$LT$os..task..TaskManagerInner$GT$$GT$17hec470914bda558b9E>
    80201926:	a829                	j	80201940 <.LBB1_7+0x14>
        inner.tasks[current].task_status = TaskStatus::Ready;
    80201928:	fb043503          	ld	a0,-80(s0)

000000008020192c <.LBB1_7>:
    8020192c:	0000b617          	auipc	a2,0xb
    80201930:	bd460613          	addi	a2,a2,-1068 # 8020c500 <.L__unnamed_3>
    80201934:	45a1                	li	a1,8
    80201936:	00007097          	auipc	ra,0x7
    8020193a:	68e080e7          	jalr	1678(ra) # 80208fc4 <_ZN4core9panicking18panic_bounds_check17h8f57694f1605b7ccE>
    8020193e:	0000                	unimp
    }
    80201940:	60a6                	ld	ra,72(sp)
    80201942:	6406                	ld	s0,64(sp)
    80201944:	6161                	addi	sp,sp,80
    80201946:	8082                	ret

0000000080201948 <_ZN2os4task11TaskManager19mark_current_exited17hf57b5098d39bb715E>:

    fn mark_current_exited(&self) {
    80201948:	715d                	addi	sp,sp,-80
    8020194a:	e486                	sd	ra,72(sp)
    8020194c:	e0a2                	sd	s0,64(sp)
    8020194e:	0880                	addi	s0,sp,80
    80201950:	fea43023          	sd	a0,-32(s0)
        let mut inner = self.inner.exclusive_access();
    80201954:	0521                	addi	a0,a0,8
    80201956:	00001097          	auipc	ra,0x1
    8020195a:	88a080e7          	jalr	-1910(ra) # 802021e0 <_ZN2os4sync2up19UPSafeCell$LT$T$GT$16exclusive_access17hcfbac3cf0a65e139E>
    8020195e:	fca43423          	sd	a0,-56(s0)
    80201962:	fcb43823          	sd	a1,-48(s0)
    80201966:	a009                	j	80201968 <_ZN2os4task11TaskManager19mark_current_exited17hf57b5098d39bb715E+0x20>
    80201968:	fc840513          	addi	a0,s0,-56
        let current = inner.current_task;
    8020196c:	00003097          	auipc	ra,0x3
    80201970:	1cc080e7          	jalr	460(ra) # 80204b38 <_ZN71_$LT$core..cell..RefMut$LT$T$GT$$u20$as$u20$core..ops..deref..Deref$GT$5deref17h3827bf300770e2d0E>
    80201974:	fca43023          	sd	a0,-64(s0)
    80201978:	a009                	j	8020197a <_ZN2os4task11TaskManager19mark_current_exited17hf57b5098d39bb715E+0x32>
    8020197a:	fc043503          	ld	a0,-64(s0)
    8020197e:	3c053503          	ld	a0,960(a0)
    80201982:	faa43823          	sd	a0,-80(s0)
    80201986:	fea43423          	sd	a0,-24(s0)
    8020198a:	450d                	li	a0,3
        inner.tasks[current].task_status = TaskStatus::Exited;
    8020198c:	fca40fa3          	sb	a0,-33(s0)
    80201990:	fc840513          	addi	a0,s0,-56
    80201994:	00003097          	auipc	ra,0x3
    80201998:	1ba080e7          	jalr	442(ra) # 80204b4e <_ZN74_$LT$core..cell..RefMut$LT$T$GT$$u20$as$u20$core..ops..deref..DerefMut$GT$9deref_mut17h9e7828085cb065acE>
    8020199c:	faa43c23          	sd	a0,-72(s0)
    802019a0:	a009                	j	802019a2 <_ZN2os4task11TaskManager19mark_current_exited17hf57b5098d39bb715E+0x5a>
    802019a2:	fb043583          	ld	a1,-80(s0)
    802019a6:	451d                	li	a0,7
    802019a8:	02b56763          	bltu	a0,a1,802019d6 <_ZN2os4task11TaskManager19mark_current_exited17hf57b5098d39bb715E+0x8e>
    802019ac:	a009                	j	802019ae <_ZN2os4task11TaskManager19mark_current_exited17hf57b5098d39bb715E+0x66>
    802019ae:	fb843503          	ld	a0,-72(s0)
    802019b2:	fb043583          	ld	a1,-80(s0)
    802019b6:	07800613          	li	a2,120
    802019ba:	02c585b3          	mul	a1,a1,a2
    802019be:	95aa                	add	a1,a1,a0
    802019c0:	fdf40503          	lb	a0,-33(s0)
    802019c4:	06a58823          	sb	a0,112(a1)
    802019c8:	fc840513          	addi	a0,s0,-56
    }
    802019cc:	fffff097          	auipc	ra,0xfffff
    802019d0:	428080e7          	jalr	1064(ra) # 80200df4 <_ZN4core3ptr73drop_in_place$LT$core..cell..RefMut$LT$os..task..TaskManagerInner$GT$$GT$17hec470914bda558b9E>
    802019d4:	a829                	j	802019ee <.LBB2_7+0x14>
        inner.tasks[current].task_status = TaskStatus::Exited;
    802019d6:	fb043503          	ld	a0,-80(s0)

00000000802019da <.LBB2_7>:
    802019da:	0000b617          	auipc	a2,0xb
    802019de:	b3e60613          	addi	a2,a2,-1218 # 8020c518 <.L__unnamed_4>
    802019e2:	45a1                	li	a1,8
    802019e4:	00007097          	auipc	ra,0x7
    802019e8:	5e0080e7          	jalr	1504(ra) # 80208fc4 <_ZN4core9panicking18panic_bounds_check17h8f57694f1605b7ccE>
    802019ec:	0000                	unimp
    }
    802019ee:	60a6                	ld	ra,72(sp)
    802019f0:	6406                	ld	s0,64(sp)
    802019f2:	6161                	addi	sp,sp,80
    802019f4:	8082                	ret

00000000802019f6 <_ZN2os4task11TaskManager14find_next_task17he38c1344b9a12713E>:

    fn find_next_task(&self) -> Option<usize> {
    802019f6:	7135                	addi	sp,sp,-160
    802019f8:	ed06                	sd	ra,152(sp)
    802019fa:	e922                	sd	s0,144(sp)
    802019fc:	1100                	addi	s0,sp,160
    802019fe:	f8a43c23          	sd	a0,-104(s0)
        let inner = self.inner.exclusive_access();
    80201a02:	0521                	addi	a0,a0,8
    80201a04:	00000097          	auipc	ra,0x0
    80201a08:	7dc080e7          	jalr	2012(ra) # 802021e0 <_ZN2os4sync2up19UPSafeCell$LT$T$GT$16exclusive_access17hcfbac3cf0a65e139E>
    80201a0c:	faa43023          	sd	a0,-96(s0)
    80201a10:	fab43423          	sd	a1,-88(s0)
    80201a14:	a009                	j	80201a16 <_ZN2os4task11TaskManager14find_next_task17he38c1344b9a12713E+0x20>
    80201a16:	fa040513          	addi	a0,s0,-96
        let current = inner.current_task;
    80201a1a:	00003097          	auipc	ra,0x3
    80201a1e:	11e080e7          	jalr	286(ra) # 80204b38 <_ZN71_$LT$core..cell..RefMut$LT$T$GT$$u20$as$u20$core..ops..deref..Deref$GT$5deref17h3827bf300770e2d0E>
    80201a22:	f8a43823          	sd	a0,-112(s0)
    80201a26:	a009                	j	80201a28 <_ZN2os4task11TaskManager14find_next_task17he38c1344b9a12713E+0x32>
    80201a28:	f9043503          	ld	a0,-112(s0)
    80201a2c:	3c053583          	ld	a1,960(a0)
    80201a30:	f8b43023          	sd	a1,-128(s0)
    80201a34:	feb43423          	sd	a1,-24(s0)
        (current + 1..current + self.num_app + 1)
    80201a38:	00158513          	addi	a0,a1,1
    80201a3c:	f8a43423          	sd	a0,-120(s0)
    80201a40:	00b56e63          	bltu	a0,a1,80201a5c <.LBB3_12>
    80201a44:	a009                	j	80201a46 <_ZN2os4task11TaskManager14find_next_task17he38c1344b9a12713E+0x50>
    80201a46:	f8043583          	ld	a1,-128(s0)
    80201a4a:	f9843503          	ld	a0,-104(s0)
    80201a4e:	6108                	ld	a0,0(a0)
    80201a50:	952e                	add	a0,a0,a1
    80201a52:	f6a43c23          	sd	a0,-136(s0)
    80201a56:	02b56a63          	bltu	a0,a1,80201a8a <.LBB3_14>
    80201a5a:	a839                	j	80201a78 <.LBB3_13+0x14>

0000000080201a5c <.LBB3_12>:
    80201a5c:	0000b517          	auipc	a0,0xb
    80201a60:	af450513          	addi	a0,a0,-1292 # 8020c550 <str.0>

0000000080201a64 <.LBB3_13>:
    80201a64:	0000b617          	auipc	a2,0xb
    80201a68:	acc60613          	addi	a2,a2,-1332 # 8020c530 <.L__unnamed_5>
    80201a6c:	45f1                	li	a1,28
    80201a6e:	00007097          	auipc	ra,0x7
    80201a72:	52a080e7          	jalr	1322(ra) # 80208f98 <_ZN4core9panicking5panic17h632812a876026437E>
    80201a76:	0000                	unimp
    80201a78:	f7843583          	ld	a1,-136(s0)
    80201a7c:	00158513          	addi	a0,a1,1
    80201a80:	f6a43823          	sd	a0,-144(s0)
    80201a84:	04b56463          	bltu	a0,a1,80201acc <.LBB3_16>
    80201a88:	a839                	j	80201aa6 <.LBB3_15+0x14>

0000000080201a8a <.LBB3_14>:
    80201a8a:	0000b517          	auipc	a0,0xb
    80201a8e:	ac650513          	addi	a0,a0,-1338 # 8020c550 <str.0>

0000000080201a92 <.LBB3_15>:
    80201a92:	0000b617          	auipc	a2,0xb
    80201a96:	ade60613          	addi	a2,a2,-1314 # 8020c570 <.L__unnamed_6>
    80201a9a:	45f1                	li	a1,28
    80201a9c:	00007097          	auipc	ra,0x7
    80201aa0:	4fc080e7          	jalr	1276(ra) # 80208f98 <_ZN4core9panicking5panic17h632812a876026437E>
    80201aa4:	0000                	unimp
    80201aa6:	f7043603          	ld	a2,-144(s0)
    80201aaa:	f8843583          	ld	a1,-120(s0)
    80201aae:	fcb43423          	sd	a1,-56(s0)
    80201ab2:	fcc43823          	sd	a2,-48(s0)
    80201ab6:	f9840693          	addi	a3,s0,-104
            .map(|id| id % self.num_app)
    80201aba:	fcd43c23          	sd	a3,-40(s0)
    80201abe:	fb040513          	addi	a0,s0,-80
        (current + 1..current + self.num_app + 1)
    80201ac2:	00002097          	auipc	ra,0x2
    80201ac6:	390080e7          	jalr	912(ra) # 80203e52 <_ZN4core4iter6traits8iterator8Iterator3map17hfc326556f2017bccE>
    80201aca:	a839                	j	80201ae8 <.LBB3_17+0x14>

0000000080201acc <.LBB3_16>:
    80201acc:	0000b517          	auipc	a0,0xb
    80201ad0:	a8450513          	addi	a0,a0,-1404 # 8020c550 <str.0>

0000000080201ad4 <.LBB3_17>:
    80201ad4:	0000b617          	auipc	a2,0xb
    80201ad8:	a9c60613          	addi	a2,a2,-1380 # 8020c570 <.L__unnamed_6>
    80201adc:	45f1                	li	a1,28
    80201ade:	00007097          	auipc	ra,0x7
    80201ae2:	4ba080e7          	jalr	1210(ra) # 80208f98 <_ZN4core9panicking5panic17h632812a876026437E>
    80201ae6:	0000                	unimp
    80201ae8:	fa040593          	addi	a1,s0,-96
            .find(|id| inner.tasks[*id].task_status == TaskStatus::Ready)
    80201aec:	feb43023          	sd	a1,-32(s0)
    80201af0:	fb040513          	addi	a0,s0,-80
        (current + 1..current + self.num_app + 1)
    80201af4:	fffff097          	auipc	ra,0xfffff
    80201af8:	ad8080e7          	jalr	-1320(ra) # 802005cc <_ZN4core4iter6traits8iterator8Iterator4find17h77b2f1de624904f8E>
    80201afc:	f6a43023          	sd	a0,-160(s0)
    80201b00:	f6b43423          	sd	a1,-152(s0)
    80201b04:	a009                	j	80201b06 <.LBB3_17+0x32>
    80201b06:	fa040513          	addi	a0,s0,-96
    }
    80201b0a:	fffff097          	auipc	ra,0xfffff
    80201b0e:	2ea080e7          	jalr	746(ra) # 80200df4 <_ZN4core3ptr73drop_in_place$LT$core..cell..RefMut$LT$os..task..TaskManagerInner$GT$$GT$17hec470914bda558b9E>
    80201b12:	a009                	j	80201b14 <.LBB3_17+0x40>
    80201b14:	f6843583          	ld	a1,-152(s0)
    80201b18:	f6043503          	ld	a0,-160(s0)
    80201b1c:	60ea                	ld	ra,152(sp)
    80201b1e:	644a                	ld	s0,144(sp)
    80201b20:	610d                	addi	sp,sp,160
    80201b22:	8082                	ret

0000000080201b24 <_ZN2os4task11TaskManager13run_next_task17h0aeeeb9887634975E>:

    fn run_next_task(&self) {
    80201b24:	7171                	addi	sp,sp,-176
    80201b26:	f506                	sd	ra,168(sp)
    80201b28:	f122                	sd	s0,160(sp)
    80201b2a:	1900                	addi	s0,sp,176
    80201b2c:	f8a43c23          	sd	a0,-104(s0)
    80201b30:	fca43423          	sd	a0,-56(s0)
        if let Some(next) = self.find_next_task() {
    80201b34:	00000097          	auipc	ra,0x0
    80201b38:	ec2080e7          	jalr	-318(ra) # 802019f6 <_ZN2os4task11TaskManager14find_next_task17he38c1344b9a12713E>
    80201b3c:	faa43023          	sd	a0,-96(s0)
    80201b40:	fab43423          	sd	a1,-88(s0)
    80201b44:	a009                	j	80201b46 <_ZN2os4task11TaskManager13run_next_task17h0aeeeb9887634975E+0x22>
    80201b46:	fa043503          	ld	a0,-96(s0)
    80201b4a:	4581                	li	a1,0
    80201b4c:	02b50563          	beq	a0,a1,80201b76 <.LBB4_18>
    80201b50:	a009                	j	80201b52 <_ZN2os4task11TaskManager13run_next_task17h0aeeeb9887634975E+0x2e>
    80201b52:	f9843503          	ld	a0,-104(s0)
    80201b56:	fa843583          	ld	a1,-88(s0)
    80201b5a:	f8b43823          	sd	a1,-112(s0)
    80201b5e:	fcb43823          	sd	a1,-48(s0)
            let mut inner = self.inner.exclusive_access();
    80201b62:	0521                	addi	a0,a0,8
    80201b64:	00000097          	auipc	ra,0x0
    80201b68:	67c080e7          	jalr	1660(ra) # 802021e0 <_ZN2os4sync2up19UPSafeCell$LT$T$GT$16exclusive_access17hcfbac3cf0a65e139E>
    80201b6c:	faa43823          	sd	a0,-80(s0)
    80201b70:	fab43c23          	sd	a1,-72(s0)
    80201b74:	a839                	j	80201b92 <.LBB4_19+0x14>

0000000080201b76 <.LBB4_18>:
            unsafe {
                __switch(current_task_cx_ptr, next_task_cx_ptr);
            }
            // go back to user mode
        } else {
            panic!("All applications completed!");
    80201b76:	0000b517          	auipc	a0,0xb
    80201b7a:	a1250513          	addi	a0,a0,-1518 # 8020c588 <.L__unnamed_7>

0000000080201b7e <.LBB4_19>:
    80201b7e:	0000b617          	auipc	a2,0xb
    80201b82:	a2a60613          	addi	a2,a2,-1494 # 8020c5a8 <.L__unnamed_8>
    80201b86:	45ed                	li	a1,27
    80201b88:	00007097          	auipc	ra,0x7
    80201b8c:	410080e7          	jalr	1040(ra) # 80208f98 <_ZN4core9panicking5panic17h632812a876026437E>
    80201b90:	0000                	unimp
    80201b92:	fb040513          	addi	a0,s0,-80
            let current = inner.current_task;
    80201b96:	00003097          	auipc	ra,0x3
    80201b9a:	fa2080e7          	jalr	-94(ra) # 80204b38 <_ZN71_$LT$core..cell..RefMut$LT$T$GT$$u20$as$u20$core..ops..deref..Deref$GT$5deref17h3827bf300770e2d0E>
    80201b9e:	f8a43423          	sd	a0,-120(s0)
    80201ba2:	a009                	j	80201ba4 <.LBB4_19+0x26>
    80201ba4:	f8843503          	ld	a0,-120(s0)
    80201ba8:	3c053503          	ld	a0,960(a0)
    80201bac:	f6a43c23          	sd	a0,-136(s0)
    80201bb0:	fca43c23          	sd	a0,-40(s0)
    80201bb4:	4509                	li	a0,2
            inner.tasks[next].task_status = TaskStatus::Running;
    80201bb6:	fca403a3          	sb	a0,-57(s0)
    80201bba:	fb040513          	addi	a0,s0,-80
    80201bbe:	00003097          	auipc	ra,0x3
    80201bc2:	f90080e7          	jalr	-112(ra) # 80204b4e <_ZN74_$LT$core..cell..RefMut$LT$T$GT$$u20$as$u20$core..ops..deref..DerefMut$GT$9deref_mut17h9e7828085cb065acE>
    80201bc6:	f8a43023          	sd	a0,-128(s0)
    80201bca:	a009                	j	80201bcc <.LBB4_19+0x4e>
    80201bcc:	f9043583          	ld	a1,-112(s0)
    80201bd0:	451d                	li	a0,7
    80201bd2:	02b56963          	bltu	a0,a1,80201c04 <.LBB4_19+0x86>
    80201bd6:	a009                	j	80201bd8 <.LBB4_19+0x5a>
    80201bd8:	f8043503          	ld	a0,-128(s0)
    80201bdc:	f9043583          	ld	a1,-112(s0)
    80201be0:	07800613          	li	a2,120
    80201be4:	02c585b3          	mul	a1,a1,a2
    80201be8:	95aa                	add	a1,a1,a0
    80201bea:	fc740503          	lb	a0,-57(s0)
    80201bee:	06a58823          	sb	a0,112(a1)
    80201bf2:	fb040513          	addi	a0,s0,-80
            inner.current_task = next;
    80201bf6:	00003097          	auipc	ra,0x3
    80201bfa:	f58080e7          	jalr	-168(ra) # 80204b4e <_ZN74_$LT$core..cell..RefMut$LT$T$GT$$u20$as$u20$core..ops..deref..DerefMut$GT$9deref_mut17h9e7828085cb065acE>
    80201bfe:	f6a43823          	sd	a0,-144(s0)
    80201c02:	a829                	j	80201c1c <.LBB4_20+0x14>
            inner.tasks[next].task_status = TaskStatus::Running;
    80201c04:	f9043503          	ld	a0,-112(s0)

0000000080201c08 <.LBB4_20>:
    80201c08:	0000b617          	auipc	a2,0xb
    80201c0c:	9b860613          	addi	a2,a2,-1608 # 8020c5c0 <.L__unnamed_9>
    80201c10:	45a1                	li	a1,8
    80201c12:	00007097          	auipc	ra,0x7
    80201c16:	3b2080e7          	jalr	946(ra) # 80208fc4 <_ZN4core9panicking18panic_bounds_check17h8f57694f1605b7ccE>
    80201c1a:	0000                	unimp
            inner.current_task = next;
    80201c1c:	f9043503          	ld	a0,-112(s0)
    80201c20:	f7043583          	ld	a1,-144(s0)
    80201c24:	3ca5b023          	sd	a0,960(a1)
    80201c28:	fb040513          	addi	a0,s0,-80
            let current_task_cx_ptr = &mut inner.tasks[current].task_cx as *mut TaskContext;
    80201c2c:	00003097          	auipc	ra,0x3
    80201c30:	f22080e7          	jalr	-222(ra) # 80204b4e <_ZN74_$LT$core..cell..RefMut$LT$T$GT$$u20$as$u20$core..ops..deref..DerefMut$GT$9deref_mut17h9e7828085cb065acE>
    80201c34:	f6a43423          	sd	a0,-152(s0)
    80201c38:	a009                	j	80201c3a <.LBB4_20+0x32>
    80201c3a:	f7843583          	ld	a1,-136(s0)
    80201c3e:	451d                	li	a0,7
    80201c40:	02b56963          	bltu	a0,a1,80201c72 <.LBB4_20+0x6a>
    80201c44:	a009                	j	80201c46 <.LBB4_20+0x3e>
    80201c46:	f6843503          	ld	a0,-152(s0)
    80201c4a:	f7843583          	ld	a1,-136(s0)
    80201c4e:	07800613          	li	a2,120
    80201c52:	02c585b3          	mul	a1,a1,a2
    80201c56:	952e                	add	a0,a0,a1
    80201c58:	f4a43c23          	sd	a0,-168(s0)
    80201c5c:	fea43023          	sd	a0,-32(s0)
    80201c60:	fb040513          	addi	a0,s0,-80
            let next_task_cx_ptr = &inner.tasks[next].task_cx as *const TaskContext;
    80201c64:	00003097          	auipc	ra,0x3
    80201c68:	ed4080e7          	jalr	-300(ra) # 80204b38 <_ZN71_$LT$core..cell..RefMut$LT$T$GT$$u20$as$u20$core..ops..deref..Deref$GT$5deref17h3827bf300770e2d0E>
    80201c6c:	f6a43023          	sd	a0,-160(s0)
    80201c70:	a829                	j	80201c8a <.LBB4_21+0x14>
            let current_task_cx_ptr = &mut inner.tasks[current].task_cx as *mut TaskContext;
    80201c72:	f7843503          	ld	a0,-136(s0)

0000000080201c76 <.LBB4_21>:
    80201c76:	0000b617          	auipc	a2,0xb
    80201c7a:	96260613          	addi	a2,a2,-1694 # 8020c5d8 <.L__unnamed_10>
    80201c7e:	45a1                	li	a1,8
    80201c80:	00007097          	auipc	ra,0x7
    80201c84:	344080e7          	jalr	836(ra) # 80208fc4 <_ZN4core9panicking18panic_bounds_check17h8f57694f1605b7ccE>
    80201c88:	0000                	unimp
    80201c8a:	f9043583          	ld	a1,-112(s0)
    80201c8e:	451d                	li	a0,7
            let next_task_cx_ptr = &inner.tasks[next].task_cx as *const TaskContext;
    80201c90:	02b56963          	bltu	a0,a1,80201cc2 <.LBB4_21+0x4c>
    80201c94:	a009                	j	80201c96 <.LBB4_21+0x20>
    80201c96:	f6043503          	ld	a0,-160(s0)
    80201c9a:	f9043583          	ld	a1,-112(s0)
    80201c9e:	07800613          	li	a2,120
    80201ca2:	02c585b3          	mul	a1,a1,a2
    80201ca6:	952e                	add	a0,a0,a1
    80201ca8:	f4a43823          	sd	a0,-176(s0)
    80201cac:	fea43423          	sd	a0,-24(s0)
            drop(inner);
    80201cb0:	fb043503          	ld	a0,-80(s0)
    80201cb4:	fb843583          	ld	a1,-72(s0)
    80201cb8:	00000097          	auipc	ra,0x0
    80201cbc:	8fa080e7          	jalr	-1798(ra) # 802015b2 <_ZN4core3mem4drop17hf6811e1c8f2431c2E>
    80201cc0:	a829                	j	80201cda <.LBB4_22+0x14>
            let next_task_cx_ptr = &inner.tasks[next].task_cx as *const TaskContext;
    80201cc2:	f9043503          	ld	a0,-112(s0)

0000000080201cc6 <.LBB4_22>:
    80201cc6:	0000b617          	auipc	a2,0xb
    80201cca:	92a60613          	addi	a2,a2,-1750 # 8020c5f0 <.L__unnamed_11>
    80201cce:	45a1                	li	a1,8
    80201cd0:	00007097          	auipc	ra,0x7
    80201cd4:	2f4080e7          	jalr	756(ra) # 80208fc4 <_ZN4core9panicking18panic_bounds_check17h8f57694f1605b7ccE>
    80201cd8:	0000                	unimp
                __switch(current_task_cx_ptr, next_task_cx_ptr);
    80201cda:	f5043583          	ld	a1,-176(s0)
    80201cde:	f5843503          	ld	a0,-168(s0)
    80201ce2:	00003097          	auipc	ra,0x3
    80201ce6:	f92080e7          	jalr	-110(ra) # 80204c74 <__switch>
    80201cea:	a009                	j	80201cec <.LBB4_22+0x26>
        }
    }
    80201cec:	70aa                	ld	ra,168(sp)
    80201cee:	740a                	ld	s0,160(sp)
    80201cf0:	614d                	addi	sp,sp,176
    80201cf2:	8082                	ret

0000000080201cf4 <_ZN2os4task14run_first_task17h0b438f0bb0f175adE>:
}

pub fn run_first_task() {
    80201cf4:	1101                	addi	sp,sp,-32
    TASK_MANAGER.run_first_task();
    80201cf6:	ec06                	sd	ra,24(sp)
    80201cf8:	e822                	sd	s0,16(sp)
    80201cfa:	1000                	addi	s0,sp,32

0000000080201cfc <.LBB5_2>:
    80201cfc:	0000b517          	auipc	a0,0xb
    80201d00:	97550513          	addi	a0,a0,-1675 # 8020c671 <.L__unnamed_2>
    80201d04:	00000097          	auipc	ra,0x0
    80201d08:	34c080e7          	jalr	844(ra) # 80202050 <_ZN66_$LT$os..task..TASK_MANAGER$u20$as$u20$core..ops..deref..Deref$GT$5deref17hdace1ecfa7cfd0c8E>
    80201d0c:	fea43423          	sd	a0,-24(s0)
    80201d10:	a009                	j	80201d12 <.LBB5_2+0x16>
    80201d12:	fe843503          	ld	a0,-24(s0)
    80201d16:	00000097          	auipc	ra,0x0
    80201d1a:	ae8080e7          	jalr	-1304(ra) # 802017fe <_ZN2os4task11TaskManager14run_first_task17h596660c3eb337f0aE>
	...

0000000080201d20 <_ZN2os4task13run_next_task17h28a478c406abca29E>:
}

fn run_next_task() {
    80201d20:	1101                	addi	sp,sp,-32
    TASK_MANAGER.run_next_task();
    80201d22:	ec06                	sd	ra,24(sp)
    80201d24:	e822                	sd	s0,16(sp)
    80201d26:	1000                	addi	s0,sp,32

0000000080201d28 <.LBB6_3>:
    80201d28:	0000b517          	auipc	a0,0xb
    80201d2c:	94950513          	addi	a0,a0,-1719 # 8020c671 <.L__unnamed_2>
    80201d30:	00000097          	auipc	ra,0x0
    80201d34:	320080e7          	jalr	800(ra) # 80202050 <_ZN66_$LT$os..task..TASK_MANAGER$u20$as$u20$core..ops..deref..Deref$GT$5deref17hdace1ecfa7cfd0c8E>
    80201d38:	fea43423          	sd	a0,-24(s0)
    80201d3c:	a009                	j	80201d3e <.LBB6_3+0x16>
    80201d3e:	fe843503          	ld	a0,-24(s0)
    80201d42:	00000097          	auipc	ra,0x0
    80201d46:	de2080e7          	jalr	-542(ra) # 80201b24 <_ZN2os4task11TaskManager13run_next_task17h0aeeeb9887634975E>
    80201d4a:	a009                	j	80201d4c <.LBB6_3+0x24>
}
    80201d4c:	60e2                	ld	ra,24(sp)
    80201d4e:	6442                	ld	s0,16(sp)
    80201d50:	6105                	addi	sp,sp,32
    80201d52:	8082                	ret

0000000080201d54 <_ZN2os4task22mark_current_suspended17h5f4ea0da83cde428E>:

fn mark_current_suspended() {
    80201d54:	1101                	addi	sp,sp,-32
    TASK_MANAGER.mark_current_suspended();
    80201d56:	ec06                	sd	ra,24(sp)
    80201d58:	e822                	sd	s0,16(sp)
    80201d5a:	1000                	addi	s0,sp,32

0000000080201d5c <.LBB7_3>:
    80201d5c:	0000b517          	auipc	a0,0xb
    80201d60:	91550513          	addi	a0,a0,-1771 # 8020c671 <.L__unnamed_2>
    80201d64:	00000097          	auipc	ra,0x0
    80201d68:	2ec080e7          	jalr	748(ra) # 80202050 <_ZN66_$LT$os..task..TASK_MANAGER$u20$as$u20$core..ops..deref..Deref$GT$5deref17hdace1ecfa7cfd0c8E>
    80201d6c:	fea43423          	sd	a0,-24(s0)
    80201d70:	a009                	j	80201d72 <.LBB7_3+0x16>
    80201d72:	fe843503          	ld	a0,-24(s0)
    80201d76:	00000097          	auipc	ra,0x0
    80201d7a:	b24080e7          	jalr	-1244(ra) # 8020189a <_ZN2os4task11TaskManager22mark_current_suspended17h1167667e12a476c0E>
    80201d7e:	a009                	j	80201d80 <.LBB7_3+0x24>
}
    80201d80:	60e2                	ld	ra,24(sp)
    80201d82:	6442                	ld	s0,16(sp)
    80201d84:	6105                	addi	sp,sp,32
    80201d86:	8082                	ret

0000000080201d88 <_ZN2os4task19mark_current_exited17hf689e730200840b0E>:

fn mark_current_exited() {
    80201d88:	1101                	addi	sp,sp,-32
    TASK_MANAGER.mark_current_exited();
    80201d8a:	ec06                	sd	ra,24(sp)
    80201d8c:	e822                	sd	s0,16(sp)
    80201d8e:	1000                	addi	s0,sp,32

0000000080201d90 <.LBB8_3>:
    80201d90:	0000b517          	auipc	a0,0xb
    80201d94:	8e150513          	addi	a0,a0,-1823 # 8020c671 <.L__unnamed_2>
    80201d98:	00000097          	auipc	ra,0x0
    80201d9c:	2b8080e7          	jalr	696(ra) # 80202050 <_ZN66_$LT$os..task..TASK_MANAGER$u20$as$u20$core..ops..deref..Deref$GT$5deref17hdace1ecfa7cfd0c8E>
    80201da0:	fea43423          	sd	a0,-24(s0)
    80201da4:	a009                	j	80201da6 <.LBB8_3+0x16>
    80201da6:	fe843503          	ld	a0,-24(s0)
    80201daa:	00000097          	auipc	ra,0x0
    80201dae:	b9e080e7          	jalr	-1122(ra) # 80201948 <_ZN2os4task11TaskManager19mark_current_exited17hf57b5098d39bb715E>
    80201db2:	a009                	j	80201db4 <.LBB8_3+0x24>
}
    80201db4:	60e2                	ld	ra,24(sp)
    80201db6:	6442                	ld	s0,16(sp)
    80201db8:	6105                	addi	sp,sp,32
    80201dba:	8082                	ret

0000000080201dbc <_ZN2os4task28suspend_current_and_run_next17hd24a42449306500eE>:

pub fn suspend_current_and_run_next() {
    80201dbc:	1141                	addi	sp,sp,-16
    mark_current_suspended();
    80201dbe:	e406                	sd	ra,8(sp)
    80201dc0:	e022                	sd	s0,0(sp)
    80201dc2:	0800                	addi	s0,sp,16
    80201dc4:	00000097          	auipc	ra,0x0
    80201dc8:	f90080e7          	jalr	-112(ra) # 80201d54 <_ZN2os4task22mark_current_suspended17h5f4ea0da83cde428E>
    80201dcc:	a009                	j	80201dce <_ZN2os4task28suspend_current_and_run_next17hd24a42449306500eE+0x12>
    run_next_task();
    80201dce:	00000097          	auipc	ra,0x0
    80201dd2:	f52080e7          	jalr	-174(ra) # 80201d20 <_ZN2os4task13run_next_task17h28a478c406abca29E>
    80201dd6:	a009                	j	80201dd8 <_ZN2os4task28suspend_current_and_run_next17hd24a42449306500eE+0x1c>
}
    80201dd8:	60a2                	ld	ra,8(sp)
    80201dda:	6402                	ld	s0,0(sp)
    80201ddc:	0141                	addi	sp,sp,16
    80201dde:	8082                	ret

0000000080201de0 <_ZN2os4task25exit_current_and_run_next17h11f30595744b3f03E>:

pub fn exit_current_and_run_next() {
    80201de0:	1141                	addi	sp,sp,-16
    mark_current_exited();
    80201de2:	e406                	sd	ra,8(sp)
    80201de4:	e022                	sd	s0,0(sp)
    80201de6:	0800                	addi	s0,sp,16
    80201de8:	00000097          	auipc	ra,0x0
    80201dec:	fa0080e7          	jalr	-96(ra) # 80201d88 <_ZN2os4task19mark_current_exited17hf689e730200840b0E>
    80201df0:	a009                	j	80201df2 <_ZN2os4task25exit_current_and_run_next17h11f30595744b3f03E+0x12>
    run_next_task();
    80201df2:	00000097          	auipc	ra,0x0
    80201df6:	f2e080e7          	jalr	-210(ra) # 80201d20 <_ZN2os4task13run_next_task17h28a478c406abca29E>
    80201dfa:	a009                	j	80201dfc <_ZN2os4task25exit_current_and_run_next17h11f30595744b3f03E+0x1c>
}
    80201dfc:	60a2                	ld	ra,8(sp)
    80201dfe:	6402                	ld	s0,0(sp)
    80201e00:	0141                	addi	sp,sp,16
    80201e02:	8082                	ret

0000000080201e04 <_ZN2os4task19get_current_task_id17h3c2d80779f6ff45eE>:

pub fn get_current_task_id() -> usize {
    80201e04:	7139                	addi	sp,sp,-64
    let inner = TASK_MANAGER.inner.exclusive_access();
    80201e06:	fc06                	sd	ra,56(sp)
    80201e08:	f822                	sd	s0,48(sp)
    80201e0a:	0080                	addi	s0,sp,64

0000000080201e0c <.LBB11_5>:
    80201e0c:	0000b517          	auipc	a0,0xb
    80201e10:	86550513          	addi	a0,a0,-1947 # 8020c671 <.L__unnamed_2>
    80201e14:	00000097          	auipc	ra,0x0
    80201e18:	23c080e7          	jalr	572(ra) # 80202050 <_ZN66_$LT$os..task..TASK_MANAGER$u20$as$u20$core..ops..deref..Deref$GT$5deref17hdace1ecfa7cfd0c8E>
    80201e1c:	fca43c23          	sd	a0,-40(s0)
    80201e20:	a009                	j	80201e22 <.LBB11_5+0x16>
    80201e22:	fd843503          	ld	a0,-40(s0)
    80201e26:	0521                	addi	a0,a0,8
    80201e28:	00000097          	auipc	ra,0x0
    80201e2c:	3b8080e7          	jalr	952(ra) # 802021e0 <_ZN2os4sync2up19UPSafeCell$LT$T$GT$16exclusive_access17hcfbac3cf0a65e139E>
    80201e30:	fea43023          	sd	a0,-32(s0)
    80201e34:	feb43423          	sd	a1,-24(s0)
    80201e38:	a009                	j	80201e3a <.LBB11_5+0x2e>
    80201e3a:	fe040513          	addi	a0,s0,-32
    inner.current_task
    80201e3e:	00003097          	auipc	ra,0x3
    80201e42:	cfa080e7          	jalr	-774(ra) # 80204b38 <_ZN71_$LT$core..cell..RefMut$LT$T$GT$$u20$as$u20$core..ops..deref..Deref$GT$5deref17h3827bf300770e2d0E>
    80201e46:	fca43823          	sd	a0,-48(s0)
    80201e4a:	a009                	j	80201e4c <.LBB11_5+0x40>
    80201e4c:	fd043503          	ld	a0,-48(s0)
    80201e50:	3c053503          	ld	a0,960(a0)
}
    80201e54:	fca43423          	sd	a0,-56(s0)
    80201e58:	fe040513          	addi	a0,s0,-32
    80201e5c:	fffff097          	auipc	ra,0xfffff
    80201e60:	f98080e7          	jalr	-104(ra) # 80200df4 <_ZN4core3ptr73drop_in_place$LT$core..cell..RefMut$LT$os..task..TaskManagerInner$GT$$GT$17hec470914bda558b9E>
    80201e64:	a009                	j	80201e66 <.LBB11_5+0x5a>
    80201e66:	fc843503          	ld	a0,-56(s0)
    80201e6a:	70e2                	ld	ra,56(sp)
    80201e6c:	7442                	ld	s0,48(sp)
    80201e6e:	6121                	addi	sp,sp,64
    80201e70:	8082                	ret

0000000080201e72 <_ZN2os4task19get_current_task_sp17h7e17db98021817d9E>:
fn get_task_sp(id: usize) -> usize {
    let inner = TASK_MANAGER.inner.exclusive_access();
    inner.tasks[id].task_cx.sp()
}

pub fn get_current_task_sp() -> usize {
    80201e72:	715d                	addi	sp,sp,-80
    let inner = TASK_MANAGER.inner.exclusive_access();
    80201e74:	e486                	sd	ra,72(sp)
    80201e76:	e0a2                	sd	s0,64(sp)
    80201e78:	0880                	addi	s0,sp,80

0000000080201e7a <.LBB12_9>:
    80201e7a:	0000a517          	auipc	a0,0xa
    80201e7e:	7f750513          	addi	a0,a0,2039 # 8020c671 <.L__unnamed_2>
    80201e82:	00000097          	auipc	ra,0x0
    80201e86:	1ce080e7          	jalr	462(ra) # 80202050 <_ZN66_$LT$os..task..TASK_MANAGER$u20$as$u20$core..ops..deref..Deref$GT$5deref17hdace1ecfa7cfd0c8E>
    80201e8a:	fca43c23          	sd	a0,-40(s0)
    80201e8e:	a009                	j	80201e90 <.LBB12_9+0x16>
    80201e90:	fd843503          	ld	a0,-40(s0)
    80201e94:	0521                	addi	a0,a0,8
    80201e96:	00000097          	auipc	ra,0x0
    80201e9a:	34a080e7          	jalr	842(ra) # 802021e0 <_ZN2os4sync2up19UPSafeCell$LT$T$GT$16exclusive_access17hcfbac3cf0a65e139E>
    80201e9e:	fea43023          	sd	a0,-32(s0)
    80201ea2:	feb43423          	sd	a1,-24(s0)
    80201ea6:	a009                	j	80201ea8 <.LBB12_9+0x2e>
    80201ea8:	fe040513          	addi	a0,s0,-32
    inner.tasks[inner.current_task].task_cx.sp()
    80201eac:	00003097          	auipc	ra,0x3
    80201eb0:	c8c080e7          	jalr	-884(ra) # 80204b38 <_ZN71_$LT$core..cell..RefMut$LT$T$GT$$u20$as$u20$core..ops..deref..Deref$GT$5deref17h3827bf300770e2d0E>
    80201eb4:	fca43823          	sd	a0,-48(s0)
    80201eb8:	a009                	j	80201eba <.LBB12_9+0x40>
    80201eba:	fe040513          	addi	a0,s0,-32
    80201ebe:	00003097          	auipc	ra,0x3
    80201ec2:	c7a080e7          	jalr	-902(ra) # 80204b38 <_ZN71_$LT$core..cell..RefMut$LT$T$GT$$u20$as$u20$core..ops..deref..Deref$GT$5deref17h3827bf300770e2d0E>
    80201ec6:	fca43423          	sd	a0,-56(s0)
    80201eca:	a009                	j	80201ecc <.LBB12_9+0x52>
    80201ecc:	fc843503          	ld	a0,-56(s0)
    80201ed0:	3c053583          	ld	a1,960(a0)
    80201ed4:	fcb43023          	sd	a1,-64(s0)
    80201ed8:	451d                	li	a0,7
    80201eda:	02b56363          	bltu	a0,a1,80201f00 <.LBB12_9+0x86>
    80201ede:	a009                	j	80201ee0 <.LBB12_9+0x66>
    80201ee0:	fd043503          	ld	a0,-48(s0)
    80201ee4:	fc043583          	ld	a1,-64(s0)
    80201ee8:	07800613          	li	a2,120
    80201eec:	02c585b3          	mul	a1,a1,a2
    80201ef0:	952e                	add	a0,a0,a1
    80201ef2:	fffff097          	auipc	ra,0xfffff
    80201ef6:	10a080e7          	jalr	266(ra) # 80200ffc <_ZN2os4task7context11TaskContext2sp17h0be07a442494e3d0E>
    80201efa:	faa43c23          	sd	a0,-72(s0)
    80201efe:	a829                	j	80201f18 <.LBB12_10+0x14>
    80201f00:	fc043503          	ld	a0,-64(s0)

0000000080201f04 <.LBB12_10>:
    80201f04:	0000a617          	auipc	a2,0xa
    80201f08:	70460613          	addi	a2,a2,1796 # 8020c608 <.L__unnamed_12>
    80201f0c:	45a1                	li	a1,8
    80201f0e:	00007097          	auipc	ra,0x7
    80201f12:	0b6080e7          	jalr	182(ra) # 80208fc4 <_ZN4core9panicking18panic_bounds_check17h8f57694f1605b7ccE>
    80201f16:	0000                	unimp
    80201f18:	fe040513          	addi	a0,s0,-32
}
    80201f1c:	fffff097          	auipc	ra,0xfffff
    80201f20:	ed8080e7          	jalr	-296(ra) # 80200df4 <_ZN4core3ptr73drop_in_place$LT$core..cell..RefMut$LT$os..task..TaskManagerInner$GT$$GT$17hec470914bda558b9E>
    80201f24:	a009                	j	80201f26 <.LBB12_10+0x22>
    80201f26:	fb843503          	ld	a0,-72(s0)
    80201f2a:	60a6                	ld	ra,72(sp)
    80201f2c:	6406                	ld	s0,64(sp)
    80201f2e:	6161                	addi	sp,sp,80
    80201f30:	8082                	ret

0000000080201f32 <_ZN2os4task22get_current_addr_range17h94948f378ff18875E>:

pub fn get_current_addr_range() -> (usize, usize) {
    80201f32:	7119                	addi	sp,sp,-128
    let inner = TASK_MANAGER.inner.exclusive_access();
    80201f34:	fc86                	sd	ra,120(sp)
    80201f36:	f8a2                	sd	s0,112(sp)
    80201f38:	0100                	addi	s0,sp,128

0000000080201f3a <.LBB13_12>:
    80201f3a:	0000a517          	auipc	a0,0xa
    80201f3e:	73750513          	addi	a0,a0,1847 # 8020c671 <.L__unnamed_2>
    80201f42:	00000097          	auipc	ra,0x0
    80201f46:	10e080e7          	jalr	270(ra) # 80202050 <_ZN66_$LT$os..task..TASK_MANAGER$u20$as$u20$core..ops..deref..Deref$GT$5deref17hdace1ecfa7cfd0c8E>
    80201f4a:	faa43c23          	sd	a0,-72(s0)
    80201f4e:	a009                	j	80201f50 <.LBB13_12+0x16>
    80201f50:	fb843503          	ld	a0,-72(s0)
    80201f54:	0521                	addi	a0,a0,8
    80201f56:	00000097          	auipc	ra,0x0
    80201f5a:	28a080e7          	jalr	650(ra) # 802021e0 <_ZN2os4sync2up19UPSafeCell$LT$T$GT$16exclusive_access17hcfbac3cf0a65e139E>
    80201f5e:	fca43823          	sd	a0,-48(s0)
    80201f62:	fcb43c23          	sd	a1,-40(s0)
    80201f66:	a009                	j	80201f68 <.LBB13_12+0x2e>
    80201f68:	fd040513          	addi	a0,s0,-48
    let start = get_base_i(inner.current_task);
    80201f6c:	00003097          	auipc	ra,0x3
    80201f70:	bcc080e7          	jalr	-1076(ra) # 80204b38 <_ZN71_$LT$core..cell..RefMut$LT$T$GT$$u20$as$u20$core..ops..deref..Deref$GT$5deref17h3827bf300770e2d0E>
    80201f74:	faa43823          	sd	a0,-80(s0)
    80201f78:	a009                	j	80201f7a <.LBB13_12+0x40>
    80201f7a:	fb043503          	ld	a0,-80(s0)
    80201f7e:	3c053503          	ld	a0,960(a0)
    80201f82:	00004097          	auipc	ra,0x4
    80201f86:	ad6080e7          	jalr	-1322(ra) # 80205a58 <_ZN2os6loader10get_base_i17h505aa958cd15e121E>
    80201f8a:	85aa                	mv	a1,a0
    80201f8c:	fab43423          	sd	a1,-88(s0)
    80201f90:	fea43023          	sd	a0,-32(s0)
    80201f94:	a009                	j	80201f96 <.LBB13_12+0x5c>
    80201f96:	fd040513          	addi	a0,s0,-48
    let end = get_base_i(inner.current_task + 1);
    80201f9a:	00003097          	auipc	ra,0x3
    80201f9e:	b9e080e7          	jalr	-1122(ra) # 80204b38 <_ZN71_$LT$core..cell..RefMut$LT$T$GT$$u20$as$u20$core..ops..deref..Deref$GT$5deref17h3827bf300770e2d0E>
    80201fa2:	faa43023          	sd	a0,-96(s0)
    80201fa6:	a009                	j	80201fa8 <.LBB13_12+0x6e>
    80201fa8:	fa043503          	ld	a0,-96(s0)
    80201fac:	3c053583          	ld	a1,960(a0)
    80201fb0:	00158513          	addi	a0,a1,1
    80201fb4:	f8a43c23          	sd	a0,-104(s0)
    80201fb8:	00b56f63          	bltu	a0,a1,80201fd6 <.LBB13_13>
    80201fbc:	a009                	j	80201fbe <.LBB13_12+0x84>
    80201fbe:	f9843503          	ld	a0,-104(s0)
    80201fc2:	00004097          	auipc	ra,0x4
    80201fc6:	a96080e7          	jalr	-1386(ra) # 80205a58 <_ZN2os6loader10get_base_i17h505aa958cd15e121E>
    80201fca:	85aa                	mv	a1,a0
    80201fcc:	f8b43823          	sd	a1,-112(s0)
    80201fd0:	fea43423          	sd	a0,-24(s0)
    80201fd4:	a839                	j	80201ff2 <.LBB13_14+0x14>

0000000080201fd6 <.LBB13_13>:
    80201fd6:	0000a517          	auipc	a0,0xa
    80201fda:	57a50513          	addi	a0,a0,1402 # 8020c550 <str.0>

0000000080201fde <.LBB13_14>:
    80201fde:	0000a617          	auipc	a2,0xa
    80201fe2:	64260613          	addi	a2,a2,1602 # 8020c620 <.L__unnamed_13>
    80201fe6:	45f1                	li	a1,28
    80201fe8:	00007097          	auipc	ra,0x7
    80201fec:	fb0080e7          	jalr	-80(ra) # 80208f98 <_ZN4core9panicking5panic17h632812a876026437E>
    80201ff0:	0000                	unimp
    (start, end - 1)
    80201ff2:	f9043503          	ld	a0,-112(s0)
    80201ff6:	fff50593          	addi	a1,a0,-1
    80201ffa:	f8b43423          	sd	a1,-120(s0)
    80201ffe:	02b56263          	bltu	a0,a1,80202022 <.LBB13_15>
    80202002:	a009                	j	80202004 <.LBB13_14+0x26>
    80202004:	f8843503          	ld	a0,-120(s0)
    80202008:	fa843583          	ld	a1,-88(s0)
    8020200c:	fcb43023          	sd	a1,-64(s0)
    80202010:	fca43423          	sd	a0,-56(s0)
    80202014:	fd040513          	addi	a0,s0,-48
    80202018:	fffff097          	auipc	ra,0xfffff
    8020201c:	ddc080e7          	jalr	-548(ra) # 80200df4 <_ZN4core3ptr73drop_in_place$LT$core..cell..RefMut$LT$os..task..TaskManagerInner$GT$$GT$17hec470914bda558b9E>
    80202020:	a005                	j	80202040 <.LBB13_16+0x16>

0000000080202022 <.LBB13_15>:
    (start, end - 1)
    80202022:	0000a517          	auipc	a0,0xa
    80202026:	62e50513          	addi	a0,a0,1582 # 8020c650 <str.1>

000000008020202a <.LBB13_16>:
    8020202a:	0000a617          	auipc	a2,0xa
    8020202e:	60e60613          	addi	a2,a2,1550 # 8020c638 <.L__unnamed_14>
    80202032:	02100593          	li	a1,33
    80202036:	00007097          	auipc	ra,0x7
    8020203a:	f62080e7          	jalr	-158(ra) # 80208f98 <_ZN4core9panicking5panic17h632812a876026437E>
    8020203e:	0000                	unimp
    80202040:	fc043503          	ld	a0,-64(s0)
    80202044:	fc843583          	ld	a1,-56(s0)
    80202048:	70e6                	ld	ra,120(sp)
    8020204a:	7446                	ld	s0,112(sp)
    8020204c:	6109                	addi	sp,sp,128
    8020204e:	8082                	ret

0000000080202050 <_ZN66_$LT$os..task..TASK_MANAGER$u20$as$u20$core..ops..deref..Deref$GT$5deref17hdace1ecfa7cfd0c8E>:
        lazy_static!($($t)*);
    };
    (@TAIL, $N:ident : $T:ty = $e:expr) => {
        impl $crate::__Deref for $N {
            type Target = $T;
            fn deref(&self) -> &$T {
    80202050:	7179                	addi	sp,sp,-48
    80202052:	f406                	sd	ra,40(sp)
    80202054:	f022                	sd	s0,32(sp)
    80202056:	1800                	addi	s0,sp,48
    80202058:	fea43023          	sd	a0,-32(s0)

000000008020205c <.LBB14_2>:
    8020205c:	00070517          	auipc	a0,0x70
    80202060:	0cc50513          	addi	a0,a0,204 # 80272128 <_ZN66_$LT$os..task..TASK_MANAGER$u20$as$u20$core..ops..deref..Deref$GT$5deref11__stability4LAZY17h2bc1511d5a0e1839E>
    80202064:	fea43423          	sd	a0,-24(s0)

    #[inline(always)]
    pub fn get<F>(&'static self, builder: F) -> &T
        where F: FnOnce() -> T
    {
        self.0.call_once(builder)
    80202068:	00003097          	auipc	ra,0x3
    8020206c:	cce080e7          	jalr	-818(ra) # 80204d36 <_ZN4spin4once13Once$LT$T$GT$9call_once17h97b7e150dbc6f08fE>
                #[inline(always)]
                fn __stability() -> &'static $T {
                    __lazy_static_create!(LAZY, $T);
                    LAZY.get(__static_ref_initialize)
                }
                __stability()
    80202070:	fca43c23          	sd	a0,-40(s0)
    80202074:	a009                	j	80202076 <.LBB14_2+0x1a>
            }
    80202076:	fd843503          	ld	a0,-40(s0)
    8020207a:	70a2                	ld	ra,40(sp)
    8020207c:	7402                	ld	s0,32(sp)
    8020207e:	6145                	addi	sp,sp,48
    80202080:	8082                	ret

0000000080202082 <_ZN4core5slice29_$LT$impl$u20$$u5b$T$u5d$$GT$10as_mut_ptr17h13f953f5b9bc157eE>:
    80202082:	1101                	addi	sp,sp,-32
    80202084:	ec06                	sd	ra,24(sp)
    80202086:	e822                	sd	s0,16(sp)
    80202088:	1000                	addi	s0,sp,32
    8020208a:	fea43023          	sd	a0,-32(s0)
    8020208e:	feb43423          	sd	a1,-24(s0)
    80202092:	60e2                	ld	ra,24(sp)
    80202094:	6442                	ld	s0,16(sp)
    80202096:	6105                	addi	sp,sp,32
    80202098:	8082                	ret

000000008020209a <_ZN4core5slice29_$LT$impl$u20$$u5b$T$u5d$$GT$8iter_mut17hafa5b549c537cc10E>:
    8020209a:	7179                	addi	sp,sp,-48
    8020209c:	f406                	sd	ra,40(sp)
    8020209e:	f022                	sd	s0,32(sp)
    802020a0:	1800                	addi	s0,sp,48
    802020a2:	fea43023          	sd	a0,-32(s0)
    802020a6:	feb43423          	sd	a1,-24(s0)
    802020aa:	00003097          	auipc	ra,0x3
    802020ae:	24e080e7          	jalr	590(ra) # 802052f8 <_ZN4core5slice4iter16IterMut$LT$T$GT$3new17hf9311caff33039f4E>
    802020b2:	fca43823          	sd	a0,-48(s0)
    802020b6:	fcb43c23          	sd	a1,-40(s0)
    802020ba:	a009                	j	802020bc <_ZN4core5slice29_$LT$impl$u20$$u5b$T$u5d$$GT$8iter_mut17hafa5b549c537cc10E+0x22>
    802020bc:	fd843583          	ld	a1,-40(s0)
    802020c0:	fd043503          	ld	a0,-48(s0)
    802020c4:	70a2                	ld	ra,40(sp)
    802020c6:	7402                	ld	s0,32(sp)
    802020c8:	6145                	addi	sp,sp,48
    802020ca:	8082                	ret

00000000802020cc <_ZN4core5slice29_$LT$impl$u20$$u5b$T$u5d$$GT$4fill17hf899edfa0ed9f8deE>:
    802020cc:	7179                	addi	sp,sp,-48
    802020ce:	f406                	sd	ra,40(sp)
    802020d0:	f022                	sd	s0,32(sp)
    802020d2:	1800                	addi	s0,sp,48
    802020d4:	fca43c23          	sd	a0,-40(s0)
    802020d8:	feb43023          	sd	a1,-32(s0)
    802020dc:	fec407a3          	sb	a2,-17(s0)
    802020e0:	00002097          	auipc	ra,0x2
    802020e4:	cda080e7          	jalr	-806(ra) # 80203dba <_ZN74_$LT$$u5b$T$u5d$$u20$as$u20$core..slice..specialize..SpecFill$LT$T$GT$$GT$9spec_fill17h875555abb3dae87eE>
    802020e8:	a009                	j	802020ea <_ZN4core5slice29_$LT$impl$u20$$u5b$T$u5d$$GT$4fill17hf899edfa0ed9f8deE+0x1e>
    802020ea:	70a2                	ld	ra,40(sp)
    802020ec:	7402                	ld	s0,32(sp)
    802020ee:	6145                	addi	sp,sp,48
    802020f0:	8082                	ret

00000000802020f2 <_ZN4core5slice29_$LT$impl$u20$$u5b$T$u5d$$GT$15copy_from_slice17hd8d0213f2e08dce9E>:
    802020f2:	7159                	addi	sp,sp,-112
    802020f4:	f486                	sd	ra,104(sp)
    802020f6:	f0a2                	sd	s0,96(sp)
    802020f8:	1880                	addi	s0,sp,112
    802020fa:	fae43423          	sd	a4,-88(s0)
    802020fe:	fad43823          	sd	a3,-80(s0)
    80202102:	fac43c23          	sd	a2,-72(s0)
    80202106:	fcb43023          	sd	a1,-64(s0)
    8020210a:	fca43423          	sd	a0,-56(s0)
    8020210e:	fca43823          	sd	a0,-48(s0)
    80202112:	fcb43c23          	sd	a1,-40(s0)
    80202116:	fec43023          	sd	a2,-32(s0)
    8020211a:	fed43423          	sd	a3,-24(s0)
    8020211e:	00d59e63          	bne	a1,a3,8020213a <_ZN4core5slice29_$LT$impl$u20$$u5b$T$u5d$$GT$15copy_from_slice17hd8d0213f2e08dce9E+0x48>
    80202122:	a009                	j	80202124 <_ZN4core5slice29_$LT$impl$u20$$u5b$T$u5d$$GT$15copy_from_slice17hd8d0213f2e08dce9E+0x32>
    80202124:	fb043583          	ld	a1,-80(s0)
    80202128:	fb843503          	ld	a0,-72(s0)
    8020212c:	00007097          	auipc	ra,0x7
    80202130:	b0c080e7          	jalr	-1268(ra) # 80208c38 <_ZN4core5slice29_$LT$impl$u20$$u5b$T$u5d$$GT$6as_ptr17h89e6dce0cb6637ecE>
    80202134:	faa43023          	sd	a0,-96(s0)
    80202138:	a821                	j	80202150 <_ZN4core5slice29_$LT$impl$u20$$u5b$T$u5d$$GT$15copy_from_slice17hd8d0213f2e08dce9E+0x5e>
    8020213a:	fa843603          	ld	a2,-88(s0)
    8020213e:	fb043583          	ld	a1,-80(s0)
    80202142:	fc043503          	ld	a0,-64(s0)
    80202146:	00008097          	auipc	ra,0x8
    8020214a:	0ea080e7          	jalr	234(ra) # 8020a230 <_ZN4core5slice29_$LT$impl$u20$$u5b$T$u5d$$GT$15copy_from_slice17len_mismatch_fail17hfe52318293006373E>
    8020214e:	0000                	unimp
    80202150:	fc043583          	ld	a1,-64(s0)
    80202154:	fc843503          	ld	a0,-56(s0)
    80202158:	00000097          	auipc	ra,0x0
    8020215c:	f2a080e7          	jalr	-214(ra) # 80202082 <_ZN4core5slice29_$LT$impl$u20$$u5b$T$u5d$$GT$10as_mut_ptr17h13f953f5b9bc157eE>
    80202160:	f8a43c23          	sd	a0,-104(s0)
    80202164:	a009                	j	80202166 <_ZN4core5slice29_$LT$impl$u20$$u5b$T$u5d$$GT$15copy_from_slice17hd8d0213f2e08dce9E+0x74>
    80202166:	fc043603          	ld	a2,-64(s0)
    8020216a:	f9843583          	ld	a1,-104(s0)
    8020216e:	fa043503          	ld	a0,-96(s0)
    80202172:	00001097          	auipc	ra,0x1
    80202176:	f48080e7          	jalr	-184(ra) # 802030ba <_ZN4core10intrinsics19copy_nonoverlapping17hae65a4e284832fc3E>
    8020217a:	a009                	j	8020217c <_ZN4core5slice29_$LT$impl$u20$$u5b$T$u5d$$GT$15copy_from_slice17hd8d0213f2e08dce9E+0x8a>
    8020217c:	70a6                	ld	ra,104(sp)
    8020217e:	7406                	ld	s0,96(sp)
    80202180:	6165                	addi	sp,sp,112
    80202182:	8082                	ret

0000000080202184 <_ZN2os4sync2up19UPSafeCell$LT$T$GT$3new17h2cbc133a3a7eb75cE>:
unsafe impl<T> Sync for UPSafeCell<T> {}

impl<T> UPSafeCell<T> {
    /// User is responsible to guarantee that inner struct is only used in
    /// uniprocessor.
    pub unsafe fn new(value: T) -> Self {
    80202184:	84010113          	addi	sp,sp,-1984
        Self {
            inner: RefCell::new(value),
    80202188:	7a113c23          	sd	ra,1976(sp)
    8020218c:	7a813823          	sd	s0,1968(sp)
    80202190:	7c010413          	addi	s0,sp,1984
    80202194:	84a43023          	sd	a0,-1984(s0)
    80202198:	c2040513          	addi	a0,s0,-992
    8020219c:	84a43423          	sd	a0,-1976(s0)
    802021a0:	3c800613          	li	a2,968
    802021a4:	00009097          	auipc	ra,0x9
    802021a8:	032080e7          	jalr	50(ra) # 8020b1d6 <memcpy>
    802021ac:	84843583          	ld	a1,-1976(s0)
    802021b0:	85040513          	addi	a0,s0,-1968
    802021b4:	00002097          	auipc	ra,0x2
    802021b8:	7c4080e7          	jalr	1988(ra) # 80204978 <_ZN4core4cell16RefCell$LT$T$GT$3new17h32912b61dcbe6bfcE>
    802021bc:	a009                	j	802021be <_ZN2os4sync2up19UPSafeCell$LT$T$GT$3new17h2cbc133a3a7eb75cE+0x3a>
        Self {
    802021be:	84043503          	ld	a0,-1984(s0)
    802021c2:	85040593          	addi	a1,s0,-1968
    802021c6:	3d000613          	li	a2,976
    802021ca:	00009097          	auipc	ra,0x9
    802021ce:	00c080e7          	jalr	12(ra) # 8020b1d6 <memcpy>
        }
    }
    802021d2:	7b813083          	ld	ra,1976(sp)
    802021d6:	7b013403          	ld	s0,1968(sp)
    802021da:	7c010113          	addi	sp,sp,1984
    802021de:	8082                	ret

00000000802021e0 <_ZN2os4sync2up19UPSafeCell$LT$T$GT$16exclusive_access17hcfbac3cf0a65e139E>:
    /// Panic if the data has been borrowed.
    pub fn exclusive_access(&self) -> RefMut<'_, T> {
    802021e0:	7179                	addi	sp,sp,-48
    802021e2:	f406                	sd	ra,40(sp)
    802021e4:	f022                	sd	s0,32(sp)
    802021e6:	1800                	addi	s0,sp,48
    802021e8:	fea43423          	sd	a0,-24(s0)

00000000802021ec <.LBB1_2>:
        self.inner.borrow_mut()
    802021ec:	0000a597          	auipc	a1,0xa
    802021f0:	49458593          	addi	a1,a1,1172 # 8020c680 <.L__unnamed_1>
    802021f4:	00003097          	auipc	ra,0x3
    802021f8:	86a080e7          	jalr	-1942(ra) # 80204a5e <_ZN4core4cell16RefCell$LT$T$GT$10borrow_mut17he3e02b1022fc2b20E>
    802021fc:	fca43c23          	sd	a0,-40(s0)
    80202200:	feb43023          	sd	a1,-32(s0)
    80202204:	a009                	j	80202206 <.LBB1_2+0x1a>
    }
    80202206:	fe043583          	ld	a1,-32(s0)
    8020220a:	fd843503          	ld	a0,-40(s0)
    8020220e:	70a2                	ld	ra,40(sp)
    80202210:	7402                	ld	s0,32(sp)
    80202212:	6145                	addi	sp,sp,48
    80202214:	8082                	ret

0000000080202216 <_ZN4core4iter8adapters4take13Take$LT$I$GT$3new17h43748fd58f52079cE>:
    80202216:	7179                	addi	sp,sp,-48
    80202218:	f406                	sd	ra,40(sp)
    8020221a:	f022                	sd	s0,32(sp)
    8020221c:	1800                	addi	s0,sp,48
    8020221e:	86ae                	mv	a3,a1
    80202220:	fec43423          	sd	a2,-24(s0)
    80202224:	6a8c                	ld	a1,16(a3)
    80202226:	feb43023          	sd	a1,-32(s0)
    8020222a:	6698                	ld	a4,8(a3)
    8020222c:	fce43c23          	sd	a4,-40(s0)
    80202230:	6294                	ld	a3,0(a3)
    80202232:	fcd43823          	sd	a3,-48(s0)
    80202236:	e518                	sd	a4,8(a0)
    80202238:	e114                	sd	a3,0(a0)
    8020223a:	e90c                	sd	a1,16(a0)
    8020223c:	ed10                	sd	a2,24(a0)
    8020223e:	70a2                	ld	ra,40(sp)
    80202240:	7402                	ld	s0,32(sp)
    80202242:	6145                	addi	sp,sp,48
    80202244:	8082                	ret

0000000080202246 <_ZN100_$LT$core..iter..adapters..take..Take$LT$I$GT$$u20$as$u20$core..iter..traits..iterator..Iterator$GT$4next17h421e8c27763c99bcE>:
    80202246:	7179                	addi	sp,sp,-48
    80202248:	f406                	sd	ra,40(sp)
    8020224a:	f022                	sd	s0,32(sp)
    8020224c:	1800                	addi	s0,sp,48
    8020224e:	fca43823          	sd	a0,-48(s0)
    80202252:	fea43423          	sd	a0,-24(s0)
    80202256:	6d08                	ld	a0,24(a0)
    80202258:	4581                	li	a1,0
    8020225a:	00b51763          	bne	a0,a1,80202268 <_ZN100_$LT$core..iter..adapters..take..Take$LT$I$GT$$u20$as$u20$core..iter..traits..iterator..Iterator$GT$4next17h421e8c27763c99bcE+0x22>
    8020225e:	a009                	j	80202260 <_ZN100_$LT$core..iter..adapters..take..Take$LT$I$GT$$u20$as$u20$core..iter..traits..iterator..Iterator$GT$4next17h421e8c27763c99bcE+0x1a>
    80202260:	4501                	li	a0,0
    80202262:	fea43023          	sd	a0,-32(s0)
    80202266:	a005                	j	80202286 <_ZN100_$LT$core..iter..adapters..take..Take$LT$I$GT$$u20$as$u20$core..iter..traits..iterator..Iterator$GT$4next17h421e8c27763c99bcE+0x40>
    80202268:	fd043503          	ld	a0,-48(s0)
    8020226c:	6d0c                	ld	a1,24(a0)
    8020226e:	15fd                	addi	a1,a1,-1
    80202270:	ed0c                	sd	a1,24(a0)
    80202272:	ffffe097          	auipc	ra,0xffffe
    80202276:	e7e080e7          	jalr	-386(ra) # 802000f0 <_ZN110_$LT$core..iter..adapters..enumerate..Enumerate$LT$I$GT$$u20$as$u20$core..iter..traits..iterator..Iterator$GT$4next17hb8127de3c7d21c3dE>
    8020227a:	fca43c23          	sd	a0,-40(s0)
    8020227e:	feb43023          	sd	a1,-32(s0)
    80202282:	a009                	j	80202284 <_ZN100_$LT$core..iter..adapters..take..Take$LT$I$GT$$u20$as$u20$core..iter..traits..iterator..Iterator$GT$4next17h421e8c27763c99bcE+0x3e>
    80202284:	a009                	j	80202286 <_ZN100_$LT$core..iter..adapters..take..Take$LT$I$GT$$u20$as$u20$core..iter..traits..iterator..Iterator$GT$4next17h421e8c27763c99bcE+0x40>
    80202286:	fd843503          	ld	a0,-40(s0)
    8020228a:	fe043583          	ld	a1,-32(s0)
    8020228e:	70a2                	ld	ra,40(sp)
    80202290:	7402                	ld	s0,32(sp)
    80202292:	6145                	addi	sp,sp,48
    80202294:	8082                	ret

0000000080202296 <_ZN63_$LT$I$u20$as$u20$core..iter..traits..collect..IntoIterator$GT$9into_iter17hbe320e77ace6337eE>:
    80202296:	1101                	addi	sp,sp,-32
    80202298:	ec06                	sd	ra,24(sp)
    8020229a:	e822                	sd	s0,16(sp)
    8020229c:	1000                	addi	s0,sp,32
    8020229e:	feb43423          	sd	a1,-24(s0)
    802022a2:	85aa                	mv	a1,a0
    802022a4:	fe843503          	ld	a0,-24(s0)
    802022a8:	6d10                	ld	a2,24(a0)
    802022aa:	ed90                	sd	a2,24(a1)
    802022ac:	6910                	ld	a2,16(a0)
    802022ae:	e990                	sd	a2,16(a1)
    802022b0:	6510                	ld	a2,8(a0)
    802022b2:	e590                	sd	a2,8(a1)
    802022b4:	6108                	ld	a0,0(a0)
    802022b6:	e188                	sd	a0,0(a1)
    802022b8:	60e2                	ld	ra,24(sp)
    802022ba:	6442                	ld	s0,16(sp)
    802022bc:	6105                	addi	sp,sp,32
    802022be:	8082                	ret

00000000802022c0 <_ZN2os5timer8get_time17h09f9b535b618fa58E>:
use riscv::register::time;

const TICKS_PER_SEC: usize = 100;
const MICRO_PER_SEC: usize = 1_000_000;

pub fn get_time() -> usize {
    802022c0:	1101                	addi	sp,sp,-32
    time::read()
    802022c2:	ec06                	sd	ra,24(sp)
    802022c4:	e822                	sd	s0,16(sp)
    802022c6:	1000                	addi	s0,sp,32
    802022c8:	ffffe097          	auipc	ra,0xffffe
    802022cc:	1c8080e7          	jalr	456(ra) # 80200490 <_ZN5riscv8register4time4read17h6282af64c9686724E>
    802022d0:	fea43423          	sd	a0,-24(s0)
    802022d4:	a009                	j	802022d6 <_ZN2os5timer8get_time17h09f9b535b618fa58E+0x16>
}
    802022d6:	fe843503          	ld	a0,-24(s0)
    802022da:	60e2                	ld	ra,24(sp)
    802022dc:	6442                	ld	s0,16(sp)
    802022de:	6105                	addi	sp,sp,32
    802022e0:	8082                	ret

00000000802022e2 <_ZN2os5timer11get_time_us17hee1be9ef81d622e2E>:

pub fn get_time_us() -> usize {
    802022e2:	1101                	addi	sp,sp,-32
    time::read() / (CLOCK_FREQ / MICRO_PER_SEC)
    802022e4:	ec06                	sd	ra,24(sp)
    802022e6:	e822                	sd	s0,16(sp)
    802022e8:	1000                	addi	s0,sp,32
    802022ea:	ffffe097          	auipc	ra,0xffffe
    802022ee:	1a6080e7          	jalr	422(ra) # 80200490 <_ZN5riscv8register4time4read17h6282af64c9686724E>
    802022f2:	fea43423          	sd	a0,-24(s0)
    802022f6:	a009                	j	802022f8 <_ZN2os5timer11get_time_us17hee1be9ef81d622e2E+0x16>
    802022f8:	fe843503          	ld	a0,-24(s0)

00000000802022fc <.LBB1_2>:
    802022fc:	0003f597          	auipc	a1,0x3f
    80202300:	d8c58593          	addi	a1,a1,-628 # 80241088 <.LCPI1_0>
    80202304:	618c                	ld	a1,0(a1)
    80202306:	02b53533          	mulhu	a0,a0,a1
    8020230a:	810d                	srli	a0,a0,0x3
}
    8020230c:	60e2                	ld	ra,24(sp)
    8020230e:	6442                	ld	s0,16(sp)
    80202310:	6105                	addi	sp,sp,32
    80202312:	8082                	ret

0000000080202314 <_ZN2os5timer16set_next_trigger17h92220458a14afa57E>:

pub fn set_next_trigger() {
    80202314:	1101                	addi	sp,sp,-32
    set_timer(get_time() + CLOCK_FREQ / TICKS_PER_SEC);
    80202316:	ec06                	sd	ra,24(sp)
    80202318:	e822                	sd	s0,16(sp)
    8020231a:	1000                	addi	s0,sp,32
    8020231c:	00000097          	auipc	ra,0x0
    80202320:	fa4080e7          	jalr	-92(ra) # 802022c0 <_ZN2os5timer8get_time17h09f9b535b618fa58E>
    80202324:	fea43423          	sd	a0,-24(s0)
    80202328:	a009                	j	8020232a <_ZN2os5timer16set_next_trigger17h92220458a14afa57E+0x16>
    8020232a:	fe843583          	ld	a1,-24(s0)
    8020232e:	657d                	lui	a0,0x1f
    80202330:	8485051b          	addiw	a0,a0,-1976
    80202334:	952e                	add	a0,a0,a1
    80202336:	fea43023          	sd	a0,-32(s0)
    8020233a:	00b56a63          	bltu	a0,a1,8020234e <.LBB2_5>
    8020233e:	a009                	j	80202340 <_ZN2os5timer16set_next_trigger17h92220458a14afa57E+0x2c>
    80202340:	fe043503          	ld	a0,-32(s0)
    80202344:	00001097          	auipc	ra,0x1
    80202348:	bd4080e7          	jalr	-1068(ra) # 80202f18 <_ZN2os3sbi9set_timer17h70503f3835d0fdfeE>
    8020234c:	a839                	j	8020236a <.LBB2_6+0x14>

000000008020234e <.LBB2_5>:
    8020234e:	0000a517          	auipc	a0,0xa
    80202352:	37250513          	addi	a0,a0,882 # 8020c6c0 <str.0>

0000000080202356 <.LBB2_6>:
    80202356:	0000a617          	auipc	a2,0xa
    8020235a:	35260613          	addi	a2,a2,850 # 8020c6a8 <.L__unnamed_1>
    8020235e:	45f1                	li	a1,28
    80202360:	00007097          	auipc	ra,0x7
    80202364:	c38080e7          	jalr	-968(ra) # 80208f98 <_ZN4core9panicking5panic17h632812a876026437E>
    80202368:	0000                	unimp
}
    8020236a:	60e2                	ld	ra,24(sp)
    8020236c:	6442                	ld	s0,16(sp)
    8020236e:	6105                	addi	sp,sp,32
    80202370:	8082                	ret

0000000080202372 <_ZN4core4sync6atomic26strongest_failure_ordering17hf5f9d329d191894dE>:
    80202372:	1101                	addi	sp,sp,-32
    80202374:	ec06                	sd	ra,24(sp)
    80202376:	e822                	sd	s0,16(sp)
    80202378:	1000                	addi	s0,sp,32
    8020237a:	fea40723          	sb	a0,-18(s0)
    8020237e:	0ff57513          	andi	a0,a0,255
    80202382:	fea43023          	sd	a0,-32(s0)
    80202386:	fe043503          	ld	a0,-32(s0)
    8020238a:	050e                	slli	a0,a0,0x3

000000008020238c <.LBB0_9>:
    8020238c:	0000a597          	auipc	a1,0xa
    80202390:	35458593          	addi	a1,a1,852 # 8020c6e0 <.LJTI0_0>
    80202394:	952e                	add	a0,a0,a1
    80202396:	6108                	ld	a0,0(a0)
    80202398:	8502                	jr	a0
	...

000000008020239c <.LBB0_3>:
    8020239c:	4501                	li	a0,0
    8020239e:	fea407a3          	sb	a0,-17(s0)
    802023a2:	a00d                	j	802023c4 <.LBB0_7+0x8>

00000000802023a4 <.LBB0_4>:
    802023a4:	4501                	li	a0,0
    802023a6:	fea407a3          	sb	a0,-17(s0)
    802023aa:	a829                	j	802023c4 <.LBB0_7+0x8>

00000000802023ac <.LBB0_5>:
    802023ac:	4509                	li	a0,2
    802023ae:	fea407a3          	sb	a0,-17(s0)
    802023b2:	a809                	j	802023c4 <.LBB0_7+0x8>

00000000802023b4 <.LBB0_6>:
    802023b4:	4509                	li	a0,2
    802023b6:	fea407a3          	sb	a0,-17(s0)
    802023ba:	a029                	j	802023c4 <.LBB0_7+0x8>

00000000802023bc <.LBB0_7>:
    802023bc:	4511                	li	a0,4
    802023be:	fea407a3          	sb	a0,-17(s0)
    802023c2:	a009                	j	802023c4 <.LBB0_7+0x8>
    802023c4:	fef40503          	lb	a0,-17(s0)
    802023c8:	60e2                	ld	ra,24(sp)
    802023ca:	6442                	ld	s0,16(sp)
    802023cc:	6105                	addi	sp,sp,32
    802023ce:	8082                	ret

00000000802023d0 <_ZN4core4sync6atomic14spin_loop_hint17h325bad4fd027db67E>:
    802023d0:	1141                	addi	sp,sp,-16
    802023d2:	e406                	sd	ra,8(sp)
    802023d4:	e022                	sd	s0,0(sp)
    802023d6:	0800                	addi	s0,sp,16
    802023d8:	00001097          	auipc	ra,0x1
    802023dc:	cc8080e7          	jalr	-824(ra) # 802030a0 <_ZN4core4hint9spin_loop17h30fd67b645af1adeE>
    802023e0:	a009                	j	802023e2 <_ZN4core4sync6atomic14spin_loop_hint17h325bad4fd027db67E+0x12>
    802023e2:	60a2                	ld	ra,8(sp)
    802023e4:	6402                	ld	s0,0(sp)
    802023e6:	0141                	addi	sp,sp,16
    802023e8:	8082                	ret

00000000802023ea <_ZN4core4sync6atomic11AtomicUsize4load17h4a38b6629ceff2f8E>:
    802023ea:	7139                	addi	sp,sp,-64
    802023ec:	fc06                	sd	ra,56(sp)
    802023ee:	f822                	sd	s0,48(sp)
    802023f0:	0080                	addi	s0,sp,64
    802023f2:	862e                	mv	a2,a1
    802023f4:	fcc43423          	sd	a2,-56(s0)
    802023f8:	fca43c23          	sd	a0,-40(s0)
    802023fc:	feb403a3          	sb	a1,-25(s0)
    80202400:	85aa                	mv	a1,a0
    80202402:	fcb43823          	sd	a1,-48(s0)
    80202406:	fea43423          	sd	a0,-24(s0)
    8020240a:	a009                	j	8020240c <_ZN4core4sync6atomic11AtomicUsize4load17h4a38b6629ceff2f8E+0x22>
    8020240c:	fc843583          	ld	a1,-56(s0)
    80202410:	fd043503          	ld	a0,-48(s0)
    80202414:	00006097          	auipc	ra,0x6
    80202418:	fb4080e7          	jalr	-76(ra) # 802083c8 <_ZN4core4sync6atomic11atomic_load17hb2a803a389cb3ac9E>
    8020241c:	fca43023          	sd	a0,-64(s0)
    80202420:	a009                	j	80202422 <_ZN4core4sync6atomic11AtomicUsize4load17h4a38b6629ceff2f8E+0x38>
    80202422:	fc043503          	ld	a0,-64(s0)
    80202426:	70e2                	ld	ra,56(sp)
    80202428:	7442                	ld	s0,48(sp)
    8020242a:	6121                	addi	sp,sp,64
    8020242c:	8082                	ret

000000008020242e <_ZN4core4sync6atomic11AtomicUsize5store17hd4499cf8b54f8698E>:
    8020242e:	715d                	addi	sp,sp,-80
    80202430:	e486                	sd	ra,72(sp)
    80202432:	e0a2                	sd	s0,64(sp)
    80202434:	0880                	addi	s0,sp,80
    80202436:	fab43c23          	sd	a1,-72(s0)
    8020243a:	86b2                	mv	a3,a2
    8020243c:	fcd43023          	sd	a3,-64(s0)
    80202440:	fca43823          	sd	a0,-48(s0)
    80202444:	fcb43c23          	sd	a1,-40(s0)
    80202448:	fec403a3          	sb	a2,-25(s0)
    8020244c:	85aa                	mv	a1,a0
    8020244e:	fcb43423          	sd	a1,-56(s0)
    80202452:	fea43423          	sd	a0,-24(s0)
    80202456:	a009                	j	80202458 <_ZN4core4sync6atomic11AtomicUsize5store17hd4499cf8b54f8698E+0x2a>
    80202458:	fc043603          	ld	a2,-64(s0)
    8020245c:	fb843583          	ld	a1,-72(s0)
    80202460:	fc843503          	ld	a0,-56(s0)
    80202464:	00004097          	auipc	ra,0x4
    80202468:	262080e7          	jalr	610(ra) # 802066c6 <_ZN4core4sync6atomic12atomic_store17h58255f8220ab4fb3E>
    8020246c:	a009                	j	8020246e <_ZN4core4sync6atomic11AtomicUsize5store17hd4499cf8b54f8698E+0x40>
    8020246e:	60a6                	ld	ra,72(sp)
    80202470:	6406                	ld	s0,64(sp)
    80202472:	6161                	addi	sp,sp,80
    80202474:	8082                	ret

0000000080202476 <_ZN4core4sync6atomic11AtomicUsize16compare_and_swap17h9703ac6a6cbc9b3dE>:
    80202476:	7175                	addi	sp,sp,-144
    80202478:	e506                	sd	ra,136(sp)
    8020247a:	e122                	sd	s0,128(sp)
    8020247c:	0900                	addi	s0,sp,144
    8020247e:	f8d43423          	sd	a3,-120(s0)
    80202482:	f6c43c23          	sd	a2,-136(s0)
    80202486:	f8b43023          	sd	a1,-128(s0)
    8020248a:	86aa                	mv	a3,a0
    8020248c:	f8843503          	ld	a0,-120(s0)
    80202490:	f8d43823          	sd	a3,-112(s0)
    80202494:	872a                	mv	a4,a0
    80202496:	f8e43c23          	sd	a4,-104(s0)
    8020249a:	fcd43023          	sd	a3,-64(s0)
    8020249e:	fcb43423          	sd	a1,-56(s0)
    802024a2:	fcc43823          	sd	a2,-48(s0)
    802024a6:	fca40fa3          	sb	a0,-33(s0)
    802024aa:	00000097          	auipc	ra,0x0
    802024ae:	ec8080e7          	jalr	-312(ra) # 80202372 <_ZN4core4sync6atomic26strongest_failure_ordering17hf5f9d329d191894dE>
    802024b2:	0ff57513          	andi	a0,a0,255
    802024b6:	faa43023          	sd	a0,-96(s0)
    802024ba:	a009                	j	802024bc <_ZN4core4sync6atomic11AtomicUsize16compare_and_swap17h9703ac6a6cbc9b3dE+0x46>
    802024bc:	fa043703          	ld	a4,-96(s0)
    802024c0:	f9843683          	ld	a3,-104(s0)
    802024c4:	f7843603          	ld	a2,-136(s0)
    802024c8:	f8043583          	ld	a1,-128(s0)
    802024cc:	f9043503          	ld	a0,-112(s0)
    802024d0:	00000097          	auipc	ra,0x0
    802024d4:	04a080e7          	jalr	74(ra) # 8020251a <_ZN4core4sync6atomic11AtomicUsize16compare_exchange17h74e101431272f8a9E>
    802024d8:	faa43823          	sd	a0,-80(s0)
    802024dc:	fab43c23          	sd	a1,-72(s0)
    802024e0:	a009                	j	802024e2 <_ZN4core4sync6atomic11AtomicUsize16compare_and_swap17h9703ac6a6cbc9b3dE+0x6c>
    802024e2:	fb043503          	ld	a0,-80(s0)
    802024e6:	4581                	li	a1,0
    802024e8:	00b50563          	beq	a0,a1,802024f2 <_ZN4core4sync6atomic11AtomicUsize16compare_and_swap17h9703ac6a6cbc9b3dE+0x7c>
    802024ec:	a009                	j	802024ee <_ZN4core4sync6atomic11AtomicUsize16compare_and_swap17h9703ac6a6cbc9b3dE+0x78>
    802024ee:	a809                	j	80202500 <_ZN4core4sync6atomic11AtomicUsize16compare_and_swap17h9703ac6a6cbc9b3dE+0x8a>
    802024f0:	0000                	unimp
    802024f2:	fb843503          	ld	a0,-72(s0)
    802024f6:	fea43423          	sd	a0,-24(s0)
    802024fa:	faa43423          	sd	a0,-88(s0)
    802024fe:	a801                	j	8020250e <_ZN4core4sync6atomic11AtomicUsize16compare_and_swap17h9703ac6a6cbc9b3dE+0x98>
    80202500:	fb843503          	ld	a0,-72(s0)
    80202504:	fea43023          	sd	a0,-32(s0)
    80202508:	faa43423          	sd	a0,-88(s0)
    8020250c:	a009                	j	8020250e <_ZN4core4sync6atomic11AtomicUsize16compare_and_swap17h9703ac6a6cbc9b3dE+0x98>
    8020250e:	fa843503          	ld	a0,-88(s0)
    80202512:	60aa                	ld	ra,136(sp)
    80202514:	640a                	ld	s0,128(sp)
    80202516:	6149                	addi	sp,sp,144
    80202518:	8082                	ret

000000008020251a <_ZN4core4sync6atomic11AtomicUsize16compare_exchange17h74e101431272f8a9E>:
    8020251a:	7159                	addi	sp,sp,-112
    8020251c:	f486                	sd	ra,104(sp)
    8020251e:	f0a2                	sd	s0,96(sp)
    80202520:	1880                	addi	s0,sp,112
    80202522:	fac43023          	sd	a2,-96(s0)
    80202526:	fab43423          	sd	a1,-88(s0)
    8020252a:	87ba                	mv	a5,a4
    8020252c:	faf43823          	sd	a5,-80(s0)
    80202530:	87b6                	mv	a5,a3
    80202532:	faf43c23          	sd	a5,-72(s0)
    80202536:	fca43423          	sd	a0,-56(s0)
    8020253a:	fcb43823          	sd	a1,-48(s0)
    8020253e:	fcc43c23          	sd	a2,-40(s0)
    80202542:	fed40323          	sb	a3,-26(s0)
    80202546:	fee403a3          	sb	a4,-25(s0)
    8020254a:	85aa                	mv	a1,a0
    8020254c:	fcb43023          	sd	a1,-64(s0)
    80202550:	fea43423          	sd	a0,-24(s0)
    80202554:	a009                	j	80202556 <_ZN4core4sync6atomic11AtomicUsize16compare_exchange17h74e101431272f8a9E+0x3c>
    80202556:	fb043703          	ld	a4,-80(s0)
    8020255a:	fb843683          	ld	a3,-72(s0)
    8020255e:	fa043603          	ld	a2,-96(s0)
    80202562:	fa843583          	ld	a1,-88(s0)
    80202566:	fc043503          	ld	a0,-64(s0)
    8020256a:	00006097          	auipc	ra,0x6
    8020256e:	f42080e7          	jalr	-190(ra) # 802084ac <_ZN4core4sync6atomic23atomic_compare_exchange17h461397dc576665d5E>
    80202572:	f8a43823          	sd	a0,-112(s0)
    80202576:	f8b43c23          	sd	a1,-104(s0)
    8020257a:	a009                	j	8020257c <_ZN4core4sync6atomic11AtomicUsize16compare_exchange17h74e101431272f8a9E+0x62>
    8020257c:	f9843583          	ld	a1,-104(s0)
    80202580:	f9043503          	ld	a0,-112(s0)
    80202584:	70a6                	ld	ra,104(sp)
    80202586:	7406                	ld	s0,96(sp)
    80202588:	6165                	addi	sp,sp,112
    8020258a:	8082                	ret

000000008020258c <_ZN4core4sync6atomic11AtomicUsize9fetch_add17h1f0a1c1cd0aa55ceE>:
    8020258c:	715d                	addi	sp,sp,-80
    8020258e:	e486                	sd	ra,72(sp)
    80202590:	e0a2                	sd	s0,64(sp)
    80202592:	0880                	addi	s0,sp,80
    80202594:	fab43c23          	sd	a1,-72(s0)
    80202598:	86b2                	mv	a3,a2
    8020259a:	fcd43023          	sd	a3,-64(s0)
    8020259e:	fca43823          	sd	a0,-48(s0)
    802025a2:	fcb43c23          	sd	a1,-40(s0)
    802025a6:	fec403a3          	sb	a2,-25(s0)
    802025aa:	85aa                	mv	a1,a0
    802025ac:	fcb43423          	sd	a1,-56(s0)
    802025b0:	fea43423          	sd	a0,-24(s0)
    802025b4:	a009                	j	802025b6 <_ZN4core4sync6atomic11AtomicUsize9fetch_add17h1f0a1c1cd0aa55ceE+0x2a>
    802025b6:	fc043603          	ld	a2,-64(s0)
    802025ba:	fb843583          	ld	a1,-72(s0)
    802025be:	fc843503          	ld	a0,-56(s0)
    802025c2:	00005097          	auipc	ra,0x5
    802025c6:	f6a080e7          	jalr	-150(ra) # 8020752c <_ZN4core4sync6atomic10atomic_add17h75c38d55e37c02b7E>
    802025ca:	faa43823          	sd	a0,-80(s0)
    802025ce:	a009                	j	802025d0 <_ZN4core4sync6atomic11AtomicUsize9fetch_add17h1f0a1c1cd0aa55ceE+0x44>
    802025d0:	fb043503          	ld	a0,-80(s0)
    802025d4:	60a6                	ld	ra,72(sp)
    802025d6:	6406                	ld	s0,64(sp)
    802025d8:	6161                	addi	sp,sp,80
    802025da:	8082                	ret

00000000802025dc <_ZN81_$LT$core..str..iter..Chars$u20$as$u20$core..iter..traits..iterator..Iterator$GT$4next17h816be0b6a42a2e02E>:
    802025dc:	7179                	addi	sp,sp,-48
    802025de:	f406                	sd	ra,40(sp)
    802025e0:	f022                	sd	s0,32(sp)
    802025e2:	1800                	addi	s0,sp,48
    802025e4:	fea43423          	sd	a0,-24(s0)
    802025e8:	ffffe097          	auipc	ra,0xffffe
    802025ec:	08e080e7          	jalr	142(ra) # 80200676 <_ZN4core3str11validations15next_code_point17hb468a13043f92323E>
    802025f0:	fca43c23          	sd	a0,-40(s0)
    802025f4:	feb43023          	sd	a1,-32(s0)
    802025f8:	a009                	j	802025fa <_ZN81_$LT$core..str..iter..Chars$u20$as$u20$core..iter..traits..iterator..Iterator$GT$4next17h816be0b6a42a2e02E+0x1e>
    802025fa:	fe043583          	ld	a1,-32(s0)
    802025fe:	fd843503          	ld	a0,-40(s0)
    80202602:	00001097          	auipc	ra,0x1
    80202606:	658080e7          	jalr	1624(ra) # 80203c5a <_ZN4core6option15Option$LT$T$GT$3map17h6f1e2af60a0e755cE>
    8020260a:	1502                	slli	a0,a0,0x20
    8020260c:	9101                	srli	a0,a0,0x20
    8020260e:	fca43823          	sd	a0,-48(s0)
    80202612:	a009                	j	80202614 <_ZN81_$LT$core..str..iter..Chars$u20$as$u20$core..iter..traits..iterator..Iterator$GT$4next17h816be0b6a42a2e02E+0x38>
    80202614:	fd043503          	ld	a0,-48(s0)
    80202618:	70a2                	ld	ra,40(sp)
    8020261a:	7402                	ld	s0,32(sp)
    8020261c:	6145                	addi	sp,sp,48
    8020261e:	8082                	ret

0000000080202620 <_ZN54_$LT$os..logging..SimpleLogger$u20$as$u20$log..Log$GT$7enabled17h0bb9768c7dfacec1E>:
use log::{self, Level, LevelFilter, Log, Metadata, Record};

struct SimpleLogger;

impl Log for SimpleLogger {
    fn enabled(&self, _metadata: &Metadata) -> bool {
    80202620:	1101                	addi	sp,sp,-32
    80202622:	ec06                	sd	ra,24(sp)
    80202624:	e822                	sd	s0,16(sp)
    80202626:	1000                	addi	s0,sp,32
    80202628:	fea43023          	sd	a0,-32(s0)
    8020262c:	feb43423          	sd	a1,-24(s0)
    80202630:	4505                	li	a0,1
        true
    }
    80202632:	60e2                	ld	ra,24(sp)
    80202634:	6442                	ld	s0,16(sp)
    80202636:	6105                	addi	sp,sp,32
    80202638:	8082                	ret

000000008020263a <_ZN54_$LT$os..logging..SimpleLogger$u20$as$u20$log..Log$GT$3log17h5b2737da4e16746dE>:
    fn log(&self, record: &Record) {
    8020263a:	7111                	addi	sp,sp,-256
    8020263c:	fd86                	sd	ra,248(sp)
    8020263e:	f9a2                	sd	s0,240(sp)
    80202640:	0200                	addi	s0,sp,256
    80202642:	f4b43423          	sd	a1,-184(s0)
    80202646:	85aa                	mv	a1,a0
    80202648:	f4843503          	ld	a0,-184(s0)
    8020264c:	f4b43823          	sd	a1,-176(s0)
    80202650:	feb43023          	sd	a1,-32(s0)
    80202654:	fea43423          	sd	a0,-24(s0)
        if !self.enabled(record.metadata()) {
    80202658:	00003097          	auipc	ra,0x3
    8020265c:	be8080e7          	jalr	-1048(ra) # 80205240 <_ZN3log6Record8metadata17h427bd47bb3625e92E>
    80202660:	f4a43c23          	sd	a0,-168(s0)
    80202664:	a009                	j	80202666 <_ZN54_$LT$os..logging..SimpleLogger$u20$as$u20$log..Log$GT$3log17h5b2737da4e16746dE+0x2c>
    80202666:	f5843583          	ld	a1,-168(s0)
    8020266a:	f5043503          	ld	a0,-176(s0)
    8020266e:	00000097          	auipc	ra,0x0
    80202672:	fb2080e7          	jalr	-78(ra) # 80202620 <_ZN54_$LT$os..logging..SimpleLogger$u20$as$u20$log..Log$GT$7enabled17h0bb9768c7dfacec1E>
    80202676:	f4a43023          	sd	a0,-192(s0)
    8020267a:	a009                	j	8020267c <_ZN54_$LT$os..logging..SimpleLogger$u20$as$u20$log..Log$GT$3log17h5b2737da4e16746dE+0x42>
    8020267c:	f4043503          	ld	a0,-192(s0)
    80202680:	4581                	li	a1,0
    80202682:	00b50c63          	beq	a0,a1,8020269a <_ZN54_$LT$os..logging..SimpleLogger$u20$as$u20$log..Log$GT$3log17h5b2737da4e16746dE+0x60>
    80202686:	a009                	j	80202688 <_ZN54_$LT$os..logging..SimpleLogger$u20$as$u20$log..Log$GT$3log17h5b2737da4e16746dE+0x4e>
            return;
        }
        let color = match record.level() {
    80202688:	f4843503          	ld	a0,-184(s0)
    8020268c:	00003097          	auipc	ra,0x3
    80202690:	bc8080e7          	jalr	-1080(ra) # 80205254 <_ZN3log6Record5level17he699a6f1dc4786bfE>
    80202694:	f6a43423          	sd	a0,-152(s0)
    80202698:	a029                	j	802026a2 <_ZN54_$LT$os..logging..SimpleLogger$u20$as$u20$log..Log$GT$3log17h5b2737da4e16746dE+0x68>
            "\u{1B}[{}m[{:>5}] {}\u{1B}[0m",
            color,
            record.level(),
            record.args(),
        );
    }
    8020269a:	70ee                	ld	ra,248(sp)
    8020269c:	744e                	ld	s0,240(sp)
    8020269e:	6111                	addi	sp,sp,256
    802026a0:	8082                	ret
        let color = match record.level() {
    802026a2:	f6843503          	ld	a0,-152(s0)
    802026a6:	157d                	addi	a0,a0,-1
    802026a8:	f2a43c23          	sd	a0,-200(s0)
    802026ac:	f3843503          	ld	a0,-200(s0)
    802026b0:	050e                	slli	a0,a0,0x3

00000000802026b2 <.LBB1_21>:
    802026b2:	0000a597          	auipc	a1,0xa
    802026b6:	05658593          	addi	a1,a1,86 # 8020c708 <.LJTI1_0>
    802026ba:	952e                	add	a0,a0,a1
    802026bc:	6108                	ld	a0,0(a0)
    802026be:	8502                	jr	a0
	...

00000000802026c2 <.LBB1_8>:
    802026c2:	457d                	li	a0,31
            Level::Error => 31, // Red
    802026c4:	f6a42223          	sw	a0,-156(s0)
    802026c8:	a02d                	j	802026f2 <.LBB1_12+0xa>

00000000802026ca <.LBB1_9>:
    802026ca:	05d00513          	li	a0,93
            Level::Warn => 93,  // BrightYellow
    802026ce:	f6a42223          	sw	a0,-156(s0)
    802026d2:	a005                	j	802026f2 <.LBB1_12+0xa>

00000000802026d4 <.LBB1_10>:
    802026d4:	02200513          	li	a0,34
            Level::Info => 34,  // Blue
    802026d8:	f6a42223          	sw	a0,-156(s0)
    802026dc:	a819                	j	802026f2 <.LBB1_12+0xa>

00000000802026de <.LBB1_11>:
    802026de:	02000513          	li	a0,32
            Level::Debug => 32, // Green
    802026e2:	f6a42223          	sw	a0,-156(s0)
    802026e6:	a031                	j	802026f2 <.LBB1_12+0xa>

00000000802026e8 <.LBB1_12>:
    802026e8:	05a00513          	li	a0,90
            Level::Trace => 90, // BrightBlack
    802026ec:	f6a42223          	sw	a0,-156(s0)
    802026f0:	a009                	j	802026f2 <.LBB1_12+0xa>
    802026f2:	f6440513          	addi	a0,s0,-156
        println!(
    802026f6:	00001097          	auipc	ra,0x1
    802026fa:	1f8080e7          	jalr	504(ra) # 802038ee <_ZN4core3fmt10ArgumentV111new_display17hb877829fd5a7f434E>
    802026fe:	f2a43423          	sd	a0,-216(s0)
    80202702:	f2b43823          	sd	a1,-208(s0)
    80202706:	a009                	j	80202708 <.LBB1_12+0x20>
            record.level(),
    80202708:	f4843503          	ld	a0,-184(s0)
    8020270c:	00003097          	auipc	ra,0x3
    80202710:	b48080e7          	jalr	-1208(ra) # 80205254 <_ZN3log6Record5level17he699a6f1dc4786bfE>
    80202714:	fca43823          	sd	a0,-48(s0)
    80202718:	a009                	j	8020271a <.LBB1_12+0x32>
    8020271a:	fd040513          	addi	a0,s0,-48
        println!(
    8020271e:	00001097          	auipc	ra,0x1
    80202722:	12e080e7          	jalr	302(ra) # 8020384c <_ZN4core3fmt10ArgumentV111new_display17h4b5d5c5d29e1a635E>
    80202726:	f0a43c23          	sd	a0,-232(s0)
    8020272a:	f2b43023          	sd	a1,-224(s0)
    8020272e:	a009                	j	80202730 <.LBB1_12+0x48>
            record.args(),
    80202730:	f4843503          	ld	a0,-184(s0)
    80202734:	00003097          	auipc	ra,0x3
    80202738:	af6080e7          	jalr	-1290(ra) # 8020522a <_ZN3log6Record4args17h0559ce62dfae0158E>
    8020273c:	fca43c23          	sd	a0,-40(s0)
    80202740:	a009                	j	80202742 <.LBB1_12+0x5a>
    80202742:	fd840513          	addi	a0,s0,-40
        println!(
    80202746:	00001097          	auipc	ra,0x1
    8020274a:	13c080e7          	jalr	316(ra) # 80203882 <_ZN4core3fmt10ArgumentV111new_display17h58964a223776af9bE>
    8020274e:	f0a43423          	sd	a0,-248(s0)
    80202752:	f0b43823          	sd	a1,-240(s0)
    80202756:	a009                	j	80202758 <.LBB1_12+0x70>
    80202758:	f1043503          	ld	a0,-240(s0)
    8020275c:	f0843583          	ld	a1,-248(s0)
    80202760:	f2043603          	ld	a2,-224(s0)
    80202764:	f1843683          	ld	a3,-232(s0)
    80202768:	f3043703          	ld	a4,-208(s0)
    8020276c:	f2843783          	ld	a5,-216(s0)
    80202770:	faf43023          	sd	a5,-96(s0)
    80202774:	fae43423          	sd	a4,-88(s0)
    80202778:	fad43823          	sd	a3,-80(s0)
    8020277c:	fac43c23          	sd	a2,-72(s0)
    80202780:	fcb43023          	sd	a1,-64(s0)
    80202784:	fca43423          	sd	a0,-56(s0)
    80202788:	fa040513          	addi	a0,s0,-96
    8020278c:	f0a43023          	sd	a0,-256(s0)
    80202790:	a009                	j	80202792 <.LBB1_12+0xaa>
    80202792:	f0043683          	ld	a3,-256(s0)

0000000080202796 <.LBB1_22>:
    80202796:	0000a597          	auipc	a1,0xa
    8020279a:	faa58593          	addi	a1,a1,-86 # 8020c740 <.L__unnamed_2>

000000008020279e <.LBB1_23>:
    8020279e:	0000a797          	auipc	a5,0xa
    802027a2:	fe278793          	addi	a5,a5,-30 # 8020c780 <.L__unnamed_3>
    802027a6:	f7040513          	addi	a0,s0,-144
    802027aa:	4611                	li	a2,4
    802027ac:	480d                	li	a6,3
    802027ae:	8742                	mv	a4,a6
    802027b0:	00002097          	auipc	ra,0x2
    802027b4:	47e080e7          	jalr	1150(ra) # 80204c2e <_ZN4core3fmt9Arguments16new_v1_formatted17hf81c2f4576e871a9E>
    802027b8:	a009                	j	802027ba <.LBB1_23+0x1c>
    802027ba:	f7040513          	addi	a0,s0,-144
    802027be:	fffff097          	auipc	ra,0xfffff
    802027c2:	90a080e7          	jalr	-1782(ra) # 802010c8 <_ZN2os7console5print17h426f04d58d8bc374E>
    802027c6:	bdd1                	j	8020269a <_ZN54_$LT$os..logging..SimpleLogger$u20$as$u20$log..Log$GT$3log17h5b2737da4e16746dE+0x60>

00000000802027c8 <_ZN54_$LT$os..logging..SimpleLogger$u20$as$u20$log..Log$GT$5flush17h052cbead9b3f7c4dE>:
    fn flush(&self) {}
    802027c8:	1101                	addi	sp,sp,-32
    802027ca:	ec06                	sd	ra,24(sp)
    802027cc:	e822                	sd	s0,16(sp)
    802027ce:	1000                	addi	s0,sp,32
    802027d0:	fea43423          	sd	a0,-24(s0)
    802027d4:	60e2                	ld	ra,24(sp)
    802027d6:	6442                	ld	s0,16(sp)
    802027d8:	6105                	addi	sp,sp,32
    802027da:	8082                	ret

00000000802027dc <_ZN2os7logging4init17he25f6e0047493f6bE>:
}

pub fn init() {
    802027dc:	1101                	addi	sp,sp,-32
    static LOGGER: SimpleLogger = SimpleLogger;
    log::set_logger(&LOGGER).unwrap();
    802027de:	ec06                	sd	ra,24(sp)
    802027e0:	e822                	sd	s0,16(sp)
    802027e2:	1000                	addi	s0,sp,32

00000000802027e4 <.LBB3_4>:
    802027e4:	0000a517          	auipc	a0,0xa
    802027e8:	0bc50513          	addi	a0,a0,188 # 8020c8a0 <.L__unnamed_1>

00000000802027ec <.LBB3_5>:
    802027ec:	0000a597          	auipc	a1,0xa
    802027f0:	05458593          	addi	a1,a1,84 # 8020c840 <.L__unnamed_1>
    802027f4:	00005097          	auipc	ra,0x5
    802027f8:	26c080e7          	jalr	620(ra) # 80207a60 <_ZN3log10set_logger17h7eb0f80c8606915fE>
    802027fc:	fea43023          	sd	a0,-32(s0)
    80202800:	a009                	j	80202802 <.LBB3_5+0x16>
    80202802:	fe043503          	ld	a0,-32(s0)

0000000080202806 <.LBB3_6>:
    80202806:	0000a597          	auipc	a1,0xa
    8020280a:	08258593          	addi	a1,a1,130 # 8020c888 <.L__unnamed_4>
    8020280e:	fffff097          	auipc	ra,0xfffff
    80202812:	fa6080e7          	jalr	-90(ra) # 802017b4 <_ZN4core6result19Result$LT$T$C$E$GT$6unwrap17hfca86c5290722f98E>
    80202816:	a009                	j	80202818 <.LBB3_6+0x12>
    80202818:	4501                	li	a0,0
        Some("ERROR") => LevelFilter::Error,
        Some("WARN") => LevelFilter::Warn,
        Some("INFO") => LevelFilter::Info,
        Some("DEBUG") => LevelFilter::Debug,
        Some("TRACE") => LevelFilter::Trace,
        _ => LevelFilter::Off,
    8020281a:	fea43423          	sd	a0,-24(s0)
    log::set_max_level(match option_env!("LOG") {
    8020281e:	00003097          	auipc	ra,0x3
    80202822:	a72080e7          	jalr	-1422(ra) # 80205290 <_ZN3log13set_max_level17h6319f3c8e5aa9aa6E>
    80202826:	a009                	j	80202828 <.LBB3_6+0x22>
    });
}
    80202828:	60e2                	ld	ra,24(sp)
    8020282a:	6442                	ld	s0,16(sp)
    8020282c:	6105                	addi	sp,sp,32
    8020282e:	8082                	ret

0000000080202830 <_ZN5riscv8register5stval4read17h98354729007c5426E>:
        pub fn read() -> usize {
    80202830:	1101                	addi	sp,sp,-32
            unsafe { _read() }
    80202832:	ec06                	sd	ra,24(sp)
    80202834:	e822                	sd	s0,16(sp)
    80202836:	1000                	addi	s0,sp,32
    80202838:	00000097          	auipc	ra,0x0
    8020283c:	01a080e7          	jalr	26(ra) # 80202852 <_ZN5riscv8register5stval5_read17h25f1d95ede68df21E>
    80202840:	fea43423          	sd	a0,-24(s0)
    80202844:	a009                	j	80202846 <_ZN5riscv8register5stval4read17h98354729007c5426E+0x16>
        }
    80202846:	fe843503          	ld	a0,-24(s0)
    8020284a:	60e2                	ld	ra,24(sp)
    8020284c:	6442                	ld	s0,16(sp)
    8020284e:	6105                	addi	sp,sp,32
    80202850:	8082                	ret

0000000080202852 <_ZN5riscv8register5stval5_read17h25f1d95ede68df21E>:
        unsafe fn _read() -> usize {
    80202852:	1101                	addi	sp,sp,-32
                    core::arch::asm!("csrrs {0}, {1}, x0", out(reg) r, const $csr_number);
    80202854:	ec06                	sd	ra,24(sp)
    80202856:	e822                	sd	s0,16(sp)
    80202858:	1000                	addi	s0,sp,32
    8020285a:	14302573          	csrr	a0,stval
    8020285e:	fea43423          	sd	a0,-24(s0)
    80202862:	a009                	j	80202864 <_ZN5riscv8register5stval5_read17h25f1d95ede68df21E+0x12>
        }
    80202864:	fe843503          	ld	a0,-24(s0)
    80202868:	60e2                	ld	ra,24(sp)
    8020286a:	6442                	ld	s0,16(sp)
    8020286c:	6105                	addi	sp,sp,32
    8020286e:	8082                	ret

0000000080202870 <_ZN4core3str21_$LT$impl$u20$str$GT$5chars17hd7dca0339a922b7aE>:
    80202870:	7159                	addi	sp,sp,-112
    80202872:	f486                	sd	ra,104(sp)
    80202874:	f0a2                	sd	s0,96(sp)
    80202876:	1880                	addi	s0,sp,112
    80202878:	fca43023          	sd	a0,-64(s0)
    8020287c:	fcb43423          	sd	a1,-56(s0)
    80202880:	fca43823          	sd	a0,-48(s0)
    80202884:	fcb43c23          	sd	a1,-40(s0)
    80202888:	fea43023          	sd	a0,-32(s0)
    8020288c:	feb43423          	sd	a1,-24(s0)
    80202890:	faa43023          	sd	a0,-96(s0)
    80202894:	fab43423          	sd	a1,-88(s0)
    80202898:	a009                	j	8020289a <_ZN4core3str21_$LT$impl$u20$str$GT$5chars17hd7dca0339a922b7aE+0x2a>
    8020289a:	fa843583          	ld	a1,-88(s0)
    8020289e:	fa043503          	ld	a0,-96(s0)
    802028a2:	00006097          	auipc	ra,0x6
    802028a6:	3ae080e7          	jalr	942(ra) # 80208c50 <_ZN4core5slice29_$LT$impl$u20$$u5b$T$u5d$$GT$4iter17hfd91491006e9fc21E>
    802028aa:	f8a43823          	sd	a0,-112(s0)
    802028ae:	f8b43c23          	sd	a1,-104(s0)
    802028b2:	a009                	j	802028b4 <_ZN4core3str21_$LT$impl$u20$str$GT$5chars17hd7dca0339a922b7aE+0x44>
    802028b4:	f9843583          	ld	a1,-104(s0)
    802028b8:	f9043503          	ld	a0,-112(s0)
    802028bc:	faa43823          	sd	a0,-80(s0)
    802028c0:	fab43c23          	sd	a1,-72(s0)
    802028c4:	70a6                	ld	ra,104(sp)
    802028c6:	7406                	ld	s0,96(sp)
    802028c8:	6165                	addi	sp,sp,112
    802028ca:	8082                	ret

00000000802028cc <_ZN45_$LT$usize$u20$as$u20$bit_field..BitField$GT$7get_bit17h1879840985df285bE>:
    ($($t:ty)*) => ($(
        impl BitField for $t {
            const BIT_LENGTH: usize = ::core::mem::size_of::<Self>() as usize * 8;

            #[inline]
            fn get_bit(&self, bit: usize) -> bool {
    802028cc:	7139                	addi	sp,sp,-64
    802028ce:	fc06                	sd	ra,56(sp)
    802028d0:	f822                	sd	s0,48(sp)
    802028d2:	0080                	addi	s0,sp,64
    802028d4:	fcb43823          	sd	a1,-48(s0)
    802028d8:	fca43c23          	sd	a0,-40(s0)
    802028dc:	fea43023          	sd	a0,-32(s0)
    802028e0:	feb43423          	sd	a1,-24(s0)
    802028e4:	03f00513          	li	a0,63
                assert!(bit < Self::BIT_LENGTH);
    802028e8:	02b56563          	bltu	a0,a1,80202912 <.LBB0_5>
    802028ec:	a009                	j	802028ee <_ZN45_$LT$usize$u20$as$u20$bit_field..BitField$GT$7get_bit17h1879840985df285bE+0x22>

                (*self & (1 << bit)) != 0
    802028ee:	fd043603          	ld	a2,-48(s0)
    802028f2:	fd843503          	ld	a0,-40(s0)
    802028f6:	6108                	ld	a0,0(a0)
    802028f8:	fca43023          	sd	a0,-64(s0)
    802028fc:	fc067513          	andi	a0,a2,-64
    80202900:	4585                	li	a1,1
    80202902:	00c595b3          	sll	a1,a1,a2
    80202906:	fcb43423          	sd	a1,-56(s0)
    8020290a:	4581                	li	a1,0
    8020290c:	02b51d63          	bne	a0,a1,80202946 <.LBB0_7>
    80202910:	a005                	j	80202930 <.LBB0_6+0x16>

0000000080202912 <.LBB0_5>:
                assert!(bit < Self::BIT_LENGTH);
    80202912:	0000a517          	auipc	a0,0xa
    80202916:	f8e50513          	addi	a0,a0,-114 # 8020c8a0 <.L__unnamed_1>

000000008020291a <.LBB0_6>:
    8020291a:	0000a617          	auipc	a2,0xa
    8020291e:	00660613          	addi	a2,a2,6 # 8020c920 <.L__unnamed_2>
    80202922:	02800593          	li	a1,40
    80202926:	00006097          	auipc	ra,0x6
    8020292a:	672080e7          	jalr	1650(ra) # 80208f98 <_ZN4core9panicking5panic17h632812a876026437E>
    8020292e:	0000                	unimp
                (*self & (1 << bit)) != 0
    80202930:	fc043503          	ld	a0,-64(s0)
    80202934:	fc843583          	ld	a1,-56(s0)
    80202938:	8d6d                	and	a0,a0,a1
    8020293a:	00a03533          	snez	a0,a0
            }
    8020293e:	70e2                	ld	ra,56(sp)
    80202940:	7442                	ld	s0,48(sp)
    80202942:	6121                	addi	sp,sp,64
    80202944:	8082                	ret

0000000080202946 <.LBB0_7>:
                (*self & (1 << bit)) != 0
    80202946:	0000a517          	auipc	a0,0xa
    8020294a:	ffa50513          	addi	a0,a0,-6 # 8020c940 <str.0>

000000008020294e <.LBB0_8>:
    8020294e:	0000a617          	auipc	a2,0xa
    80202952:	fd260613          	addi	a2,a2,-46 # 8020c920 <.L__unnamed_2>
    80202956:	02300593          	li	a1,35
    8020295a:	00006097          	auipc	ra,0x6
    8020295e:	63e080e7          	jalr	1598(ra) # 80208f98 <_ZN4core9panicking5panic17h632812a876026437E>
	...

0000000080202964 <_ZN45_$LT$usize$u20$as$u20$bit_field..BitField$GT$7set_bit17h985db05c3dabfb46E>:
                // shift away low bits
                bits >> range.start
            }

            #[inline]
            fn set_bit(&mut self, bit: usize, value: bool) -> &mut Self {
    80202964:	715d                	addi	sp,sp,-80
    80202966:	e486                	sd	ra,72(sp)
    80202968:	e0a2                	sd	s0,64(sp)
    8020296a:	0880                	addi	s0,sp,80
    8020296c:	fcb43023          	sd	a1,-64(s0)
    80202970:	fca43423          	sd	a0,-56(s0)
    80202974:	86b2                	mv	a3,a2
    80202976:	fcd43823          	sd	a3,-48(s0)
    8020297a:	fca43c23          	sd	a0,-40(s0)
    8020297e:	feb43023          	sd	a1,-32(s0)
    80202982:	fec407a3          	sb	a2,-17(s0)
    80202986:	03f00513          	li	a0,63
                assert!(bit < Self::BIT_LENGTH);
    8020298a:	00b56963          	bltu	a0,a1,8020299c <.LBB1_10>
    8020298e:	a009                	j	80202990 <_ZN45_$LT$usize$u20$as$u20$bit_field..BitField$GT$7set_bit17h985db05c3dabfb46E+0x2c>
    80202990:	fd043503          	ld	a0,-48(s0)
    80202994:	4581                	li	a1,0

                if value {
    80202996:	02b51f63          	bne	a0,a1,802029d4 <.LBB1_11+0x30>
    8020299a:	a005                	j	802029ba <.LBB1_11+0x16>

000000008020299c <.LBB1_10>:
                assert!(bit < Self::BIT_LENGTH);
    8020299c:	0000a517          	auipc	a0,0xa
    802029a0:	f0450513          	addi	a0,a0,-252 # 8020c8a0 <.L__unnamed_1>

00000000802029a4 <.LBB1_11>:
    802029a4:	0000a617          	auipc	a2,0xa
    802029a8:	f7c60613          	addi	a2,a2,-132 # 8020c920 <.L__unnamed_2>
    802029ac:	02800593          	li	a1,40
    802029b0:	00006097          	auipc	ra,0x6
    802029b4:	5e8080e7          	jalr	1512(ra) # 80208f98 <_ZN4core9panicking5panic17h632812a876026437E>
    802029b8:	0000                	unimp
                    *self |= 1 << bit;
                } else {
                    *self &= !(1 << bit);
    802029ba:	fc043603          	ld	a2,-64(s0)
    802029be:	fc067513          	andi	a0,a2,-64
    802029c2:	4585                	li	a1,1
    802029c4:	00c595b3          	sll	a1,a1,a2
    802029c8:	fab43c23          	sd	a1,-72(s0)
    802029cc:	4581                	li	a1,0
    802029ce:	06b51763          	bne	a0,a1,80202a3c <.LBB1_14>
    802029d2:	a899                	j	80202a28 <.LBB1_13+0x22>
                    *self |= 1 << bit;
    802029d4:	fc043603          	ld	a2,-64(s0)
    802029d8:	fc067513          	andi	a0,a2,-64
    802029dc:	4585                	li	a1,1
    802029de:	00c595b3          	sll	a1,a1,a2
    802029e2:	fab43823          	sd	a1,-80(s0)
    802029e6:	4581                	li	a1,0
    802029e8:	00b51b63          	bne	a0,a1,802029fe <.LBB1_12>
    802029ec:	a009                	j	802029ee <.LBB1_11+0x4a>
    802029ee:	fc843583          	ld	a1,-56(s0)
    802029f2:	fb043603          	ld	a2,-80(s0)
    802029f6:	6188                	ld	a0,0(a1)
    802029f8:	8d51                	or	a0,a0,a2
    802029fa:	e188                	sd	a0,0(a1)
                if value {
    802029fc:	a005                	j	80202a1c <.LBB1_13+0x16>

00000000802029fe <.LBB1_12>:
                    *self |= 1 << bit;
    802029fe:	0000a517          	auipc	a0,0xa
    80202a02:	f4250513          	addi	a0,a0,-190 # 8020c940 <str.0>

0000000080202a06 <.LBB1_13>:
    80202a06:	0000a617          	auipc	a2,0xa
    80202a0a:	f1a60613          	addi	a2,a2,-230 # 8020c920 <.L__unnamed_2>
    80202a0e:	02300593          	li	a1,35
    80202a12:	00006097          	auipc	ra,0x6
    80202a16:	586080e7          	jalr	1414(ra) # 80208f98 <_ZN4core9panicking5panic17h632812a876026437E>
    80202a1a:	0000                	unimp
                }

                self
            }
    80202a1c:	fc843503          	ld	a0,-56(s0)
    80202a20:	60a6                	ld	ra,72(sp)
    80202a22:	6406                	ld	s0,64(sp)
    80202a24:	6161                	addi	sp,sp,80
    80202a26:	8082                	ret
                    *self &= !(1 << bit);
    80202a28:	fc843583          	ld	a1,-56(s0)
    80202a2c:	fb843503          	ld	a0,-72(s0)
    80202a30:	fff54613          	not	a2,a0
    80202a34:	6188                	ld	a0,0(a1)
    80202a36:	8d71                	and	a0,a0,a2
    80202a38:	e188                	sd	a0,0(a1)
                if value {
    80202a3a:	b7cd                	j	80202a1c <.LBB1_13+0x16>

0000000080202a3c <.LBB1_14>:
                    *self &= !(1 << bit);
    80202a3c:	0000a517          	auipc	a0,0xa
    80202a40:	f0450513          	addi	a0,a0,-252 # 8020c940 <str.0>

0000000080202a44 <.LBB1_15>:
    80202a44:	0000a617          	auipc	a2,0xa
    80202a48:	edc60613          	addi	a2,a2,-292 # 8020c920 <.L__unnamed_2>
    80202a4c:	02300593          	li	a1,35
    80202a50:	00006097          	auipc	ra,0x6
    80202a54:	548080e7          	jalr	1352(ra) # 80208f98 <_ZN4core9panicking5panic17h632812a876026437E>
	...

0000000080202a5a <_ZN4core4char7convert18from_u32_unchecked17hd16b3dba7bc5bd4dE>:
    80202a5a:	1101                	addi	sp,sp,-32
    80202a5c:	ec06                	sd	ra,24(sp)
    80202a5e:	e822                	sd	s0,16(sp)
    80202a60:	1000                	addi	s0,sp,32
    80202a62:	fea42423          	sw	a0,-24(s0)
    80202a66:	fea42623          	sw	a0,-20(s0)
    80202a6a:	fea43023          	sd	a0,-32(s0)
    80202a6e:	a009                	j	80202a70 <_ZN4core4char7convert18from_u32_unchecked17hd16b3dba7bc5bd4dE+0x16>
    80202a70:	fe043503          	ld	a0,-32(s0)
    80202a74:	60e2                	ld	ra,24(sp)
    80202a76:	6442                	ld	s0,16(sp)
    80202a78:	6105                	addi	sp,sp,32
    80202a7a:	8082                	ret

0000000080202a7c <_ZN4core4char7methods22_$LT$impl$u20$char$GT$11encode_utf817hf70e73917d28ca75E>:
    80202a7c:	715d                	addi	sp,sp,-80
    80202a7e:	e486                	sd	ra,72(sp)
    80202a80:	e0a2                	sd	s0,64(sp)
    80202a82:	0880                	addi	s0,sp,80
    80202a84:	fca42e23          	sw	a0,-36(s0)
    80202a88:	feb43023          	sd	a1,-32(s0)
    80202a8c:	fec43423          	sd	a2,-24(s0)
    80202a90:	00000097          	auipc	ra,0x0
    80202a94:	0ae080e7          	jalr	174(ra) # 80202b3e <_ZN4core4char7methods15encode_utf8_raw17h05a7538477eaa493E>
    80202a98:	fca43423          	sd	a0,-56(s0)
    80202a9c:	fcb43823          	sd	a1,-48(s0)
    80202aa0:	a009                	j	80202aa2 <_ZN4core4char7methods22_$LT$impl$u20$char$GT$11encode_utf817hf70e73917d28ca75E+0x26>
    80202aa2:	fd043583          	ld	a1,-48(s0)
    80202aa6:	fc843503          	ld	a0,-56(s0)
    80202aaa:	00001097          	auipc	ra,0x1
    80202aae:	a26080e7          	jalr	-1498(ra) # 802034d0 <_ZN4core3str8converts23from_utf8_unchecked_mut17he5f8e5de271ea809E>
    80202ab2:	faa43c23          	sd	a0,-72(s0)
    80202ab6:	fcb43023          	sd	a1,-64(s0)
    80202aba:	a009                	j	80202abc <_ZN4core4char7methods22_$LT$impl$u20$char$GT$11encode_utf817hf70e73917d28ca75E+0x40>
    80202abc:	fc043583          	ld	a1,-64(s0)
    80202ac0:	fb843503          	ld	a0,-72(s0)
    80202ac4:	60a6                	ld	ra,72(sp)
    80202ac6:	6406                	ld	s0,64(sp)
    80202ac8:	6161                	addi	sp,sp,80
    80202aca:	8082                	ret

0000000080202acc <_ZN4core4char7methods8len_utf817haff87084a44ff510E>:
    80202acc:	7179                	addi	sp,sp,-48
    80202ace:	f406                	sd	ra,40(sp)
    80202ad0:	f022                	sd	s0,32(sp)
    80202ad2:	1800                	addi	s0,sp,48
    80202ad4:	85aa                	mv	a1,a0
    80202ad6:	0005851b          	sext.w	a0,a1
    80202ada:	862e                	mv	a2,a1
    80202adc:	fcc43c23          	sd	a2,-40(s0)
    80202ae0:	feb42623          	sw	a1,-20(s0)
    80202ae4:	08000593          	li	a1,128
    80202ae8:	00b56b63          	bltu	a0,a1,80202afe <_ZN4core4char7methods8len_utf817haff87084a44ff510E+0x32>
    80202aec:	a009                	j	80202aee <_ZN4core4char7methods8len_utf817haff87084a44ff510E+0x22>
    80202aee:	fd843503          	ld	a0,-40(s0)
    80202af2:	00b5551b          	srliw	a0,a0,0xb
    80202af6:	4581                	li	a1,0
    80202af8:	02b50563          	beq	a0,a1,80202b22 <_ZN4core4char7methods8len_utf817haff87084a44ff510E+0x56>
    80202afc:	a819                	j	80202b12 <_ZN4core4char7methods8len_utf817haff87084a44ff510E+0x46>
    80202afe:	4505                	li	a0,1
    80202b00:	fea43023          	sd	a0,-32(s0)
    80202b04:	a009                	j	80202b06 <_ZN4core4char7methods8len_utf817haff87084a44ff510E+0x3a>
    80202b06:	fe043503          	ld	a0,-32(s0)
    80202b0a:	70a2                	ld	ra,40(sp)
    80202b0c:	7402                	ld	s0,32(sp)
    80202b0e:	6145                	addi	sp,sp,48
    80202b10:	8082                	ret
    80202b12:	fd843503          	ld	a0,-40(s0)
    80202b16:	0105551b          	srliw	a0,a0,0x10
    80202b1a:	4581                	li	a1,0
    80202b1c:	00b50c63          	beq	a0,a1,80202b34 <_ZN4core4char7methods8len_utf817haff87084a44ff510E+0x68>
    80202b20:	a031                	j	80202b2c <_ZN4core4char7methods8len_utf817haff87084a44ff510E+0x60>
    80202b22:	4509                	li	a0,2
    80202b24:	fea43023          	sd	a0,-32(s0)
    80202b28:	a009                	j	80202b2a <_ZN4core4char7methods8len_utf817haff87084a44ff510E+0x5e>
    80202b2a:	bff1                	j	80202b06 <_ZN4core4char7methods8len_utf817haff87084a44ff510E+0x3a>
    80202b2c:	4511                	li	a0,4
    80202b2e:	fea43023          	sd	a0,-32(s0)
    80202b32:	a029                	j	80202b3c <_ZN4core4char7methods8len_utf817haff87084a44ff510E+0x70>
    80202b34:	450d                	li	a0,3
    80202b36:	fea43023          	sd	a0,-32(s0)
    80202b3a:	a009                	j	80202b3c <_ZN4core4char7methods8len_utf817haff87084a44ff510E+0x70>
    80202b3c:	b7fd                	j	80202b2a <_ZN4core4char7methods8len_utf817haff87084a44ff510E+0x5e>

0000000080202b3e <_ZN4core4char7methods15encode_utf8_raw17h05a7538477eaa493E>:
    80202b3e:	7109                	addi	sp,sp,-384
    80202b40:	fe86                	sd	ra,376(sp)
    80202b42:	faa2                	sd	s0,368(sp)
    80202b44:	0300                	addi	s0,sp,384
    80202b46:	eec43423          	sd	a2,-280(s0)
    80202b4a:	eeb43823          	sd	a1,-272(s0)
    80202b4e:	eea42e23          	sw	a0,-260(s0)
    80202b52:	f8b43823          	sd	a1,-112(s0)
    80202b56:	f8c43c23          	sd	a2,-104(s0)
    80202b5a:	00000097          	auipc	ra,0x0
    80202b5e:	f72080e7          	jalr	-142(ra) # 80202acc <_ZN4core4char7methods8len_utf817haff87084a44ff510E>
    80202b62:	f0a43023          	sd	a0,-256(s0)
    80202b66:	a009                	j	80202b68 <_ZN4core4char7methods15encode_utf8_raw17h05a7538477eaa493E+0x2a>
    80202b68:	ee843583          	ld	a1,-280(s0)
    80202b6c:	ef043503          	ld	a0,-272(s0)
    80202b70:	f0043603          	ld	a2,-256(s0)
    80202b74:	ecc43823          	sd	a2,-304(s0)

0000000080202b78 <.LBB2_21>:
    80202b78:	0000a617          	auipc	a2,0xa
    80202b7c:	e4060613          	addi	a2,a2,-448 # 8020c9b8 <.L__unnamed_1>
    80202b80:	ffffd097          	auipc	ra,0xffffd
    80202b84:	4d2080e7          	jalr	1234(ra) # 80200052 <_ZN4core5slice5index77_$LT$impl$u20$core..ops..index..IndexMut$LT$I$GT$$u20$for$u20$$u5b$T$u5d$$GT$9index_mut17h8abb490f3709a9dbE>
    80202b88:	eca43c23          	sd	a0,-296(s0)
    80202b8c:	eeb43023          	sd	a1,-288(s0)
    80202b90:	a009                	j	80202b92 <.LBB2_21+0x1a>
    80202b92:	ed043503          	ld	a0,-304(s0)
    80202b96:	ee043583          	ld	a1,-288(s0)
    80202b9a:	ed843603          	ld	a2,-296(s0)
    80202b9e:	f0a43423          	sd	a0,-248(s0)
    80202ba2:	f0c43823          	sd	a2,-240(s0)
    80202ba6:	f0b43c23          	sd	a1,-232(s0)
    80202baa:	85aa                	mv	a1,a0
    80202bac:	ecb43423          	sd	a1,-312(s0)
    80202bb0:	4585                	li	a1,1
    80202bb2:	04b50063          	beq	a0,a1,80202bf2 <.LBB2_21+0x7a>
    80202bb6:	a009                	j	80202bb8 <.LBB2_21+0x40>
    80202bb8:	ec843503          	ld	a0,-312(s0)
    80202bbc:	4589                	li	a1,2
    80202bbe:	04b50063          	beq	a0,a1,80202bfe <.LBB2_21+0x86>
    80202bc2:	a009                	j	80202bc4 <.LBB2_21+0x4c>
    80202bc4:	ec843503          	ld	a0,-312(s0)
    80202bc8:	458d                	li	a1,3
    80202bca:	04b50063          	beq	a0,a1,80202c0a <.LBB2_21+0x92>
    80202bce:	a009                	j	80202bd0 <.LBB2_21+0x58>
    80202bd0:	ec843503          	ld	a0,-312(s0)
    80202bd4:	4591                	li	a1,4
    80202bd6:	04b50063          	beq	a0,a1,80202c16 <.LBB2_21+0x9e>
    80202bda:	a009                	j	80202bdc <.LBB2_21+0x64>
    80202bdc:	f0040513          	addi	a0,s0,-256
    80202be0:	00001097          	auipc	ra,0x1
    80202be4:	d44080e7          	jalr	-700(ra) # 80203924 <_ZN4core3fmt10ArgumentV111new_display17hdf08d098bd0d5996E>
    80202be8:	eaa43c23          	sd	a0,-328(s0)
    80202bec:	ecb43023          	sd	a1,-320(s0)
    80202bf0:	a29d                	j	80202d56 <.LBB2_22+0xba>
    80202bf2:	f1843503          	ld	a0,-232(s0)
    80202bf6:	4581                	li	a1,0
    80202bf8:	12b51e63          	bne	a0,a1,80202d34 <.LBB2_22+0x98>
    80202bfc:	b7c5                	j	80202bdc <.LBB2_21+0x64>
    80202bfe:	f1843583          	ld	a1,-232(s0)
    80202c02:	4505                	li	a0,1
    80202c04:	0eb56f63          	bltu	a0,a1,80202d02 <.LBB2_22+0x66>
    80202c08:	bfd1                	j	80202bdc <.LBB2_21+0x64>
    80202c0a:	f1843583          	ld	a1,-232(s0)
    80202c0e:	4509                	li	a0,2
    80202c10:	0ab56363          	bltu	a0,a1,80202cb6 <.LBB2_22+0x1a>
    80202c14:	b7e1                	j	80202bdc <.LBB2_21+0x64>
    80202c16:	f1843503          	ld	a0,-232(s0)
    80202c1a:	4591                	li	a1,4
    80202c1c:	fcb560e3          	bltu	a0,a1,80202bdc <.LBB2_21+0x64>
    80202c20:	a009                	j	80202c22 <.LBB2_21+0xaa>
    80202c22:	f1043583          	ld	a1,-240(s0)
    80202c26:	eab43823          	sd	a1,-336(s0)
    80202c2a:	fab43023          	sd	a1,-96(s0)
    80202c2e:	00158513          	addi	a0,a1,1
    80202c32:	faa43423          	sd	a0,-88(s0)
    80202c36:	00258513          	addi	a0,a1,2
    80202c3a:	faa43823          	sd	a0,-80(s0)
    80202c3e:	00358513          	addi	a0,a1,3
    80202c42:	faa43c23          	sd	a0,-72(s0)
    80202c46:	efc42503          	lw	a0,-260(s0)
    80202c4a:	8149                	srli	a0,a0,0x12
    80202c4c:	891d                	andi	a0,a0,7
    80202c4e:	0f056513          	ori	a0,a0,240
    80202c52:	00a58023          	sb	a0,0(a1)
    80202c56:	efc42503          	lw	a0,-260(s0)
    80202c5a:	8131                	srli	a0,a0,0xc
    80202c5c:	03f57513          	andi	a0,a0,63
    80202c60:	08056513          	ori	a0,a0,128
    80202c64:	00a580a3          	sb	a0,1(a1)
    80202c68:	efc42503          	lw	a0,-260(s0)
    80202c6c:	8119                	srli	a0,a0,0x6
    80202c6e:	03f57513          	andi	a0,a0,63
    80202c72:	08056513          	ori	a0,a0,128
    80202c76:	00a58123          	sb	a0,2(a1)
    80202c7a:	efc44503          	lbu	a0,-260(s0)
    80202c7e:	03f57513          	andi	a0,a0,63
    80202c82:	08056513          	ori	a0,a0,128
    80202c86:	00a581a3          	sb	a0,3(a1)
    80202c8a:	a009                	j	80202c8c <.LBB2_21+0x114>
    80202c8c:	ee843583          	ld	a1,-280(s0)
    80202c90:	ef043503          	ld	a0,-272(s0)
    80202c94:	f0043603          	ld	a2,-256(s0)
    80202c98:	f8c43423          	sd	a2,-120(s0)

0000000080202c9c <.LBB2_22>:
    80202c9c:	0000a697          	auipc	a3,0xa
    80202ca0:	d3468693          	addi	a3,a3,-716 # 8020c9d0 <.L__unnamed_2>
    80202ca4:	ffffd097          	auipc	ra,0xffffd
    80202ca8:	36c080e7          	jalr	876(ra) # 80200010 <_ZN4core5slice5index77_$LT$impl$u20$core..ops..index..IndexMut$LT$I$GT$$u20$for$u20$$u5b$T$u5d$$GT$9index_mut17h820b4f9ce2dab85eE>
    80202cac:	eaa43023          	sd	a0,-352(s0)
    80202cb0:	eab43423          	sd	a1,-344(s0)
    80202cb4:	a849                	j	80202d46 <.LBB2_22+0xaa>
    80202cb6:	f1043583          	ld	a1,-240(s0)
    80202cba:	fcb43023          	sd	a1,-64(s0)
    80202cbe:	00158513          	addi	a0,a1,1
    80202cc2:	fca43423          	sd	a0,-56(s0)
    80202cc6:	00258513          	addi	a0,a1,2
    80202cca:	fca43823          	sd	a0,-48(s0)
    80202cce:	efc42503          	lw	a0,-260(s0)
    80202cd2:	8131                	srli	a0,a0,0xc
    80202cd4:	893d                	andi	a0,a0,15
    80202cd6:	0e056513          	ori	a0,a0,224
    80202cda:	00a58023          	sb	a0,0(a1)
    80202cde:	efc42503          	lw	a0,-260(s0)
    80202ce2:	8119                	srli	a0,a0,0x6
    80202ce4:	03f57513          	andi	a0,a0,63
    80202ce8:	08056513          	ori	a0,a0,128
    80202cec:	00a580a3          	sb	a0,1(a1)
    80202cf0:	efc44503          	lbu	a0,-260(s0)
    80202cf4:	03f57513          	andi	a0,a0,63
    80202cf8:	08056513          	ori	a0,a0,128
    80202cfc:	00a58123          	sb	a0,2(a1)
    80202d00:	b771                	j	80202c8c <.LBB2_21+0x114>
    80202d02:	f1043583          	ld	a1,-240(s0)
    80202d06:	fcb43c23          	sd	a1,-40(s0)
    80202d0a:	00158513          	addi	a0,a1,1
    80202d0e:	fea43023          	sd	a0,-32(s0)
    80202d12:	efc42503          	lw	a0,-260(s0)
    80202d16:	8119                	srli	a0,a0,0x6
    80202d18:	897d                	andi	a0,a0,31
    80202d1a:	0c056513          	ori	a0,a0,192
    80202d1e:	00a58023          	sb	a0,0(a1)
    80202d22:	efc44503          	lbu	a0,-260(s0)
    80202d26:	03f57513          	andi	a0,a0,63
    80202d2a:	08056513          	ori	a0,a0,128
    80202d2e:	00a580a3          	sb	a0,1(a1)
    80202d32:	bfa9                	j	80202c8c <.LBB2_21+0x114>
    80202d34:	f1043583          	ld	a1,-240(s0)
    80202d38:	feb43423          	sd	a1,-24(s0)
    80202d3c:	efc40503          	lb	a0,-260(s0)
    80202d40:	00a58023          	sb	a0,0(a1)
    80202d44:	b7a1                	j	80202c8c <.LBB2_21+0x114>
    80202d46:	ea843583          	ld	a1,-344(s0)
    80202d4a:	ea043503          	ld	a0,-352(s0)
    80202d4e:	70f6                	ld	ra,376(sp)
    80202d50:	7456                	ld	s0,368(sp)
    80202d52:	6119                	addi	sp,sp,384
    80202d54:	8082                	ret
    80202d56:	efc40513          	addi	a0,s0,-260
    80202d5a:	00001097          	auipc	ra,0x1
    80202d5e:	d0e080e7          	jalr	-754(ra) # 80203a68 <_ZN4core3fmt10ArgumentV113new_upper_hex17hb8918292cf9dc85eE>
    80202d62:	e8a43823          	sd	a0,-368(s0)
    80202d66:	e8b43c23          	sd	a1,-360(s0)
    80202d6a:	a009                	j	80202d6c <.LBB2_22+0xd0>
    80202d6c:	ee843503          	ld	a0,-280(s0)
    80202d70:	f8a43023          	sd	a0,-128(s0)
    80202d74:	f8040513          	addi	a0,s0,-128
    80202d78:	00001097          	auipc	ra,0x1
    80202d7c:	bac080e7          	jalr	-1108(ra) # 80203924 <_ZN4core3fmt10ArgumentV111new_display17hdf08d098bd0d5996E>
    80202d80:	e8a43023          	sd	a0,-384(s0)
    80202d84:	e8b43423          	sd	a1,-376(s0)
    80202d88:	a009                	j	80202d8a <.LBB2_22+0xee>
    80202d8a:	e8843503          	ld	a0,-376(s0)
    80202d8e:	e8043583          	ld	a1,-384(s0)
    80202d92:	e9843603          	ld	a2,-360(s0)
    80202d96:	e9043683          	ld	a3,-368(s0)
    80202d9a:	ec043703          	ld	a4,-320(s0)
    80202d9e:	eb843783          	ld	a5,-328(s0)
    80202da2:	f4f43823          	sd	a5,-176(s0)
    80202da6:	f4e43c23          	sd	a4,-168(s0)
    80202daa:	f6d43023          	sd	a3,-160(s0)
    80202dae:	f6c43423          	sd	a2,-152(s0)
    80202db2:	f6b43823          	sd	a1,-144(s0)
    80202db6:	f6a43c23          	sd	a0,-136(s0)

0000000080202dba <.LBB2_23>:
    80202dba:	0000a597          	auipc	a1,0xa
    80202dbe:	c6e58593          	addi	a1,a1,-914 # 8020ca28 <.L__unnamed_3>
    80202dc2:	f2040513          	addi	a0,s0,-224
    80202dc6:	f5040693          	addi	a3,s0,-176
    80202dca:	470d                	li	a4,3
    80202dcc:	863a                	mv	a2,a4
    80202dce:	00002097          	auipc	ra,0x2
    80202dd2:	d96080e7          	jalr	-618(ra) # 80204b64 <_ZN4core3fmt9Arguments6new_v117h9d5aba721c4dc286E>
    80202dd6:	a009                	j	80202dd8 <.LBB2_24>

0000000080202dd8 <.LBB2_24>:
    80202dd8:	0000a597          	auipc	a1,0xa
    80202ddc:	c8058593          	addi	a1,a1,-896 # 8020ca58 <.L__unnamed_4>
    80202de0:	f2040513          	addi	a0,s0,-224
    80202de4:	00006097          	auipc	ra,0x6
    80202de8:	220080e7          	jalr	544(ra) # 80209004 <_ZN4core9panicking9panic_fmt17hab20c19868743046E>
	...

0000000080202dee <_ZN4core5slice3raw14from_raw_parts17h724126a100c65cb6E>:
    80202dee:	7139                	addi	sp,sp,-64
    80202df0:	fc06                	sd	ra,56(sp)
    80202df2:	f822                	sd	s0,48(sp)
    80202df4:	0080                	addi	s0,sp,64
    80202df6:	fcb43823          	sd	a1,-48(s0)
    80202dfa:	fca43c23          	sd	a0,-40(s0)
    80202dfe:	fea43023          	sd	a0,-32(s0)
    80202e02:	feb43423          	sd	a1,-24(s0)
    80202e06:	00000097          	auipc	ra,0x0
    80202e0a:	0e4080e7          	jalr	228(ra) # 80202eea <_ZN4core5slice3raw20debug_check_data_len17h59de690a7ec14301E>
    80202e0e:	a009                	j	80202e10 <_ZN4core5slice3raw14from_raw_parts17h724126a100c65cb6E+0x22>
    80202e10:	fd043583          	ld	a1,-48(s0)
    80202e14:	fd843503          	ld	a0,-40(s0)
    80202e18:	ffffd097          	auipc	ra,0xffffd
    80202e1c:	560080e7          	jalr	1376(ra) # 80200378 <_ZN4core3ptr20slice_from_raw_parts17he05c95ff1cd7248aE>
    80202e20:	fca43023          	sd	a0,-64(s0)
    80202e24:	fcb43423          	sd	a1,-56(s0)
